
1399A-ESA-Bootloader.elf:     file format elf32-littlearm

Sections:
Idx Name          Size      VMA       LMA       File off  Algn
  0 .isr_vector   0000018c  08000000  08000000  00010000  2**0
                  CONTENTS, ALLOC, LOAD, READONLY, DATA
  1 .text         000021a8  0800018c  0800018c  0001018c  2**2
                  CONTENTS, ALLOC, LOAD, READONLY, CODE
  2 .codeInformation 00000080  08003f70  08003f70  00023f70  2**0
                  CONTENTS, ALLOC, LOAD, READONLY, DATA
  3 .codePresent  00000004  08003ff8  08003ff8  00023ff8  2**2
                  CONTENTS, ALLOC, LOAD, READONLY, DATA
  4 .flashChecksum 00000004  08003ffc  08003ffc  00023ffc  2**2
                  CONTENTS, ALLOC, LOAD, READONLY, DATA
  5 .rodata       00000048  08002334  08002334  00012334  2**2
                  CONTENTS, ALLOC, LOAD, READONLY, DATA
  6 .ARM.extab    00000000  0800237c  0800237c  00024000  2**0
                  CONTENTS
  7 .ARM          00000000  0800237c  0800237c  00024000  2**0
                  CONTENTS
  8 .preinit_array 00000000  0800237c  0800237c  00024000  2**0
                  CONTENTS, ALLOC, LOAD, DATA
  9 .init_array   00000004  0800237c  0800237c  0001237c  2**2
                  CONTENTS, ALLOC, LOAD, DATA
 10 .fini_array   00000004  08002380  08002380  00012380  2**2
                  CONTENTS, ALLOC, LOAD, DATA
 11 .data         0000005c  20000000  08002384  00020000  2**2
                  CONTENTS, ALLOC, LOAD, DATA
 12 .bss          00000148  20000060  080023e0  00020060  2**3
                  ALLOC
 13 ._user_heap_stack 00000600  200001a8  080023e0  000201a8  2**0
                  ALLOC
 14 .ARM.attributes 00000030  00000000  00000000  00024000  2**0
                  CONTENTS, READONLY
 15 .comment      00000043  00000000  00000000  00024030  2**0
                  CONTENTS, READONLY
 16 .debug_frame  0000004c  00000000  00000000  00024074  2**2
                  CONTENTS, READONLY, DEBUGGING, OCTETS

Disassembly of section .text:

0800018c <__do_global_dtors_aux>:
 800018c:	b510      	push	{r4, lr}
 800018e:	4c05      	ldr	r4, [pc, #20]	; (80001a4 <__do_global_dtors_aux+0x18>)
 8000190:	7823      	ldrb	r3, [r4, #0]
 8000192:	b933      	cbnz	r3, 80001a2 <__do_global_dtors_aux+0x16>
 8000194:	4b04      	ldr	r3, [pc, #16]	; (80001a8 <__do_global_dtors_aux+0x1c>)
 8000196:	b113      	cbz	r3, 800019e <__do_global_dtors_aux+0x12>
 8000198:	4804      	ldr	r0, [pc, #16]	; (80001ac <__do_global_dtors_aux+0x20>)
 800019a:	f3af 8000 	nop.w
 800019e:	2301      	movs	r3, #1
 80001a0:	7023      	strb	r3, [r4, #0]
 80001a2:	bd10      	pop	{r4, pc}
 80001a4:	20000060 	.word	0x20000060
 80001a8:	00000000 	.word	0x00000000
 80001ac:	0800231c 	.word	0x0800231c

080001b0 <frame_dummy>:
 80001b0:	b508      	push	{r3, lr}
 80001b2:	4b03      	ldr	r3, [pc, #12]	; (80001c0 <frame_dummy+0x10>)
 80001b4:	b11b      	cbz	r3, 80001be <frame_dummy+0xe>
 80001b6:	4903      	ldr	r1, [pc, #12]	; (80001c4 <frame_dummy+0x14>)
 80001b8:	4803      	ldr	r0, [pc, #12]	; (80001c8 <frame_dummy+0x18>)
 80001ba:	f3af 8000 	nop.w
 80001be:	bd08      	pop	{r3, pc}
 80001c0:	00000000 	.word	0x00000000
 80001c4:	20000064 	.word	0x20000064
 80001c8:	0800231c 	.word	0x0800231c

080001cc <CAN_Init_Diag_Messages>:
 80001cc:	b538      	push	{r3, r4, r5, lr}
 80001ce:	4b14      	ldr	r3, [pc, #80]	; (8000220 <CAN_Init_Diag_Messages+0x54>)
 80001d0:	2201      	movs	r2, #1
 80001d2:	2156      	movs	r1, #86	; 0x56
 80001d4:	e9c3 1200 	strd	r1, r2, [r3]
 80001d8:	2108      	movs	r1, #8
 80001da:	6119      	str	r1, [r3, #16]
 80001dc:	4911      	ldr	r1, [pc, #68]	; (8000224 <CAN_Init_Diag_Messages+0x58>)
 80001de:	2400      	movs	r4, #0
 80001e0:	600b      	str	r3, [r1, #0]
 80001e2:	4911      	ldr	r1, [pc, #68]	; (8000228 <CAN_Init_Diag_Messages+0x5c>)
 80001e4:	e9c3 4402 	strd	r4, r4, [r3, #8]
 80001e8:	f44f 632a 	mov.w	r3, #2720	; 0xaa0
 80001ec:	e9c1 3302 	strd	r3, r3, [r1, #8]
 80001f0:	e9c1 2406 	strd	r2, r4, [r1, #24]
 80001f4:	e9c1 4400 	strd	r4, r4, [r1]
 80001f8:	e9c1 4404 	strd	r4, r4, [r1, #16]
 80001fc:	4605      	mov	r5, r0
 80001fe:	620a      	str	r2, [r1, #32]
 8000200:	f000 fe97 	bl	8000f32 <HAL_CAN_ConfigFilter>
 8000204:	4622      	mov	r2, r4
 8000206:	4809      	ldr	r0, [pc, #36]	; (800022c <CAN_Init_Diag_Messages+0x60>)
 8000208:	2120      	movs	r1, #32
 800020a:	f001 fb7d 	bl	8001908 <HAL_GPIO_WritePin>
 800020e:	4b08      	ldr	r3, [pc, #32]	; (8000230 <CAN_Init_Diag_Messages+0x64>)
 8000210:	4a08      	ldr	r2, [pc, #32]	; (8000234 <CAN_Init_Diag_Messages+0x68>)
 8000212:	601c      	str	r4, [r3, #0]
 8000214:	6013      	str	r3, [r2, #0]
 8000216:	4628      	mov	r0, r5
 8000218:	e8bd 4038 	ldmia.w	sp!, {r3, r4, r5, lr}
 800021c:	f000 bef7 	b.w	800100e <HAL_CAN_Start>
 8000220:	200000a4 	.word	0x200000a4
 8000224:	2000010c 	.word	0x2000010c
 8000228:	2000007c 	.word	0x2000007c
 800022c:	48000400 	.word	0x48000400
 8000230:	200000c0 	.word	0x200000c0
 8000234:	20000110 	.word	0x20000110

08000238 <CAN_Diag_Decode_Request>:
 8000238:	b510      	push	{r4, lr}
 800023a:	4b0b      	ldr	r3, [pc, #44]	; (8000268 <CAN_Diag_Decode_Request+0x30>)
 800023c:	7884      	ldrb	r4, [r0, #2]
 800023e:	7801      	ldrb	r1, [r0, #0]
 8000240:	7842      	ldrb	r2, [r0, #1]
 8000242:	709c      	strb	r4, [r3, #2]
 8000244:	78c4      	ldrb	r4, [r0, #3]
 8000246:	70dc      	strb	r4, [r3, #3]
 8000248:	7904      	ldrb	r4, [r0, #4]
 800024a:	711c      	strb	r4, [r3, #4]
 800024c:	7944      	ldrb	r4, [r0, #5]
 800024e:	715c      	strb	r4, [r3, #5]
 8000250:	7984      	ldrb	r4, [r0, #6]
 8000252:	79c0      	ldrb	r0, [r0, #7]
 8000254:	7019      	strb	r1, [r3, #0]
 8000256:	705a      	strb	r2, [r3, #1]
 8000258:	719c      	strb	r4, [r3, #6]
 800025a:	71d8      	strb	r0, [r3, #7]
 800025c:	4b03      	ldr	r3, [pc, #12]	; (800026c <CAN_Diag_Decode_Request+0x34>)
 800025e:	7019      	strb	r1, [r3, #0]
 8000260:	4b03      	ldr	r3, [pc, #12]	; (8000270 <CAN_Diag_Decode_Request+0x38>)
 8000262:	701a      	strb	r2, [r3, #0]
 8000264:	bd10      	pop	{r4, pc}
 8000266:	bf00      	nop
 8000268:	200000ca 	.word	0x200000ca
 800026c:	200000d2 	.word	0x200000d2
 8000270:	200000c4 	.word	0x200000c4

08000274 <doJumpToApplication>:
 8000274:	4b07      	ldr	r3, [pc, #28]	; (8000294 <doJumpToApplication+0x20>)
 8000276:	4a08      	ldr	r2, [pc, #32]	; (8000298 <doJumpToApplication+0x24>)
 8000278:	601a      	str	r2, [r3, #0]
 800027a:	4b08      	ldr	r3, [pc, #32]	; (800029c <doJumpToApplication+0x28>)
 800027c:	f8d3 2ff8 	ldr.w	r2, [r3, #4088]	; 0xff8
 8000280:	4b07      	ldr	r3, [pc, #28]	; (80002a0 <doJumpToApplication+0x2c>)
 8000282:	429a      	cmp	r2, r3
 8000284:	d105      	bne.n	8000292 <doJumpToApplication+0x1e>
 8000286:	4b07      	ldr	r3, [pc, #28]	; (80002a4 <doJumpToApplication+0x30>)
 8000288:	685a      	ldr	r2, [r3, #4]
 800028a:	681b      	ldr	r3, [r3, #0]
 800028c:	f383 8808 	msr	MSP, r3
 8000290:	4710      	bx	r2
 8000292:	4770      	bx	lr
 8000294:	20000114 	.word	0x20000114
 8000298:	0802fff8 	.word	0x0802fff8
 800029c:	0802f000 	.word	0x0802f000
 80002a0:	deadbeef 	.word	0xdeadbeef
 80002a4:	08008000 	.word	0x08008000

080002a8 <CAN_Diag_Generate_Reply>:
 80002a8:	e92d 47f3 	stmdb	sp!, {r0, r1, r4, r5, r6, r7, r8, r9, sl, lr}
 80002ac:	4cc4      	ldr	r4, [pc, #784]	; (80005c0 <CAN_Diag_Generate_Reply+0x318>)
 80002ae:	4dc5      	ldr	r5, [pc, #788]	; (80005c4 <CAN_Diag_Generate_Reply+0x31c>)
 80002b0:	7823      	ldrb	r3, [r4, #0]
 80002b2:	2baa      	cmp	r3, #170	; 0xaa
 80002b4:	4606      	mov	r6, r0
 80002b6:	f000 8169 	beq.w	800058c <CAN_Diag_Generate_Reply+0x2e4>
 80002ba:	d848      	bhi.n	800034e <CAN_Diag_Generate_Reply+0xa6>
 80002bc:	2b41      	cmp	r3, #65	; 0x41
 80002be:	f000 810f 	beq.w	80004e0 <CAN_Diag_Generate_Reply+0x238>
 80002c2:	d81a      	bhi.n	80002fa <CAN_Diag_Generate_Reply+0x52>
 80002c4:	2b13      	cmp	r3, #19
 80002c6:	f000 80b9 	beq.w	800043c <CAN_Diag_Generate_Reply+0x194>
 80002ca:	2b40      	cmp	r3, #64	; 0x40
 80002cc:	f000 80f2 	beq.w	80004b4 <CAN_Diag_Generate_Reply+0x20c>
 80002d0:	882b      	ldrh	r3, [r5, #0]
 80002d2:	2b00      	cmp	r3, #0
 80002d4:	f000 8172 	beq.w	80005bc <CAN_Diag_Generate_Reply+0x314>
 80002d8:	3b01      	subs	r3, #1
 80002da:	4630      	mov	r0, r6
 80002dc:	802b      	strh	r3, [r5, #0]
 80002de:	f000 ff10 	bl	8001102 <HAL_CAN_GetTxMailboxesFreeLevel>
 80002e2:	b138      	cbz	r0, 80002f4 <CAN_Diag_Generate_Reply+0x4c>
 80002e4:	4bb8      	ldr	r3, [pc, #736]	; (80005c8 <CAN_Diag_Generate_Reply+0x320>)
 80002e6:	49b9      	ldr	r1, [pc, #740]	; (80005cc <CAN_Diag_Generate_Reply+0x324>)
 80002e8:	681b      	ldr	r3, [r3, #0]
 80002ea:	6809      	ldr	r1, [r1, #0]
 80002ec:	466a      	mov	r2, sp
 80002ee:	4630      	mov	r0, r6
 80002f0:	f000 febb 	bl	800106a <HAL_CAN_AddTxMessage>
 80002f4:	b002      	add	sp, #8
 80002f6:	e8bd 87f0 	ldmia.w	sp!, {r4, r5, r6, r7, r8, r9, sl, pc}
 80002fa:	2b42      	cmp	r3, #66	; 0x42
 80002fc:	f000 8115 	beq.w	800052a <CAN_Diag_Generate_Reply+0x282>
 8000300:	2b83      	cmp	r3, #131	; 0x83
 8000302:	d1e5      	bne.n	80002d0 <CAN_Diag_Generate_Reply+0x28>
 8000304:	48b2      	ldr	r0, [pc, #712]	; (80005d0 <CAN_Diag_Generate_Reply+0x328>)
 8000306:	f64e 439a 	movw	r3, #60570	; 0xec9a
 800030a:	6802      	ldr	r2, [r0, #0]
 800030c:	f8ad 3000 	strh.w	r3, [sp]
 8000310:	f852 3b04 	ldr.w	r3, [r2], #4
 8000314:	f88d 3005 	strb.w	r3, [sp, #5]
 8000318:	f3c3 6107 	ubfx	r1, r3, #24, #8
 800031c:	f88d 1002 	strb.w	r1, [sp, #2]
 8000320:	f3c3 4107 	ubfx	r1, r3, #16, #8
 8000324:	f88d 1003 	strb.w	r1, [sp, #3]
 8000328:	f3c3 2107 	ubfx	r1, r3, #8, #8
 800032c:	f88d 1004 	strb.w	r1, [sp, #4]
 8000330:	49a8      	ldr	r1, [pc, #672]	; (80005d4 <CAN_Diag_Generate_Reply+0x32c>)
 8000332:	6002      	str	r2, [r0, #0]
 8000334:	880b      	ldrh	r3, [r1, #0]
 8000336:	1e5f      	subs	r7, r3, #1
 8000338:	3301      	adds	r3, #1
 800033a:	800b      	strh	r3, [r1, #0]
 800033c:	882b      	ldrh	r3, [r5, #0]
 800033e:	f88d 7007 	strb.w	r7, [sp, #7]
 8000342:	f3c7 2c07 	ubfx	ip, r7, #8, #8
 8000346:	f88d c006 	strb.w	ip, [sp, #6]
 800034a:	2b01      	cmp	r3, #1
 800034c:	e0ae      	b.n	80004ac <CAN_Diag_Generate_Reply+0x204>
 800034e:	f103 0240 	add.w	r2, r3, #64	; 0x40
 8000352:	b2d2      	uxtb	r2, r2
 8000354:	2a03      	cmp	r2, #3
 8000356:	d8bb      	bhi.n	80002d0 <CAN_Diag_Generate_Reply+0x28>
 8000358:	3bc1      	subs	r3, #193	; 0xc1
 800035a:	279a      	movs	r7, #154	; 0x9a
 800035c:	2b02      	cmp	r3, #2
 800035e:	d803      	bhi.n	8000368 <CAN_Diag_Generate_Reply+0xc0>
 8000360:	e8df f003 	tbb	[pc, r3]
 8000364:	3c28      	.short	0x3c28
 8000366:	4f          	.byte	0x4f
 8000367:	00          	.byte	0x00
 8000368:	4b9b      	ldr	r3, [pc, #620]	; (80005d8 <CAN_Diag_Generate_Reply+0x330>)
 800036a:	f893 a002 	ldrb.w	sl, [r3, #2]
 800036e:	f893 9003 	ldrb.w	r9, [r3, #3]
 8000372:	f893 8004 	ldrb.w	r8, [r3, #4]
 8000376:	795f      	ldrb	r7, [r3, #5]
 8000378:	2000      	movs	r0, #0
 800037a:	f36a 601f 	bfi	r0, sl, #24, #8
 800037e:	f369 4017 	bfi	r0, r9, #16, #8
 8000382:	f368 200f 	bfi	r0, r8, #8, #8
 8000386:	f367 0007 	bfi	r0, r7, #0, #8
 800038a:	f000 fc29 	bl	8000be0 <Set_CRC_Start_Address>
 800038e:	239a      	movs	r3, #154	; 0x9a
 8000390:	f88d 3000 	strb.w	r3, [sp]
 8000394:	7823      	ldrb	r3, [r4, #0]
 8000396:	f88d a002 	strb.w	sl, [sp, #2]
 800039a:	43db      	mvns	r3, r3
 800039c:	f88d 3001 	strb.w	r3, [sp, #1]
 80003a0:	2300      	movs	r3, #0
 80003a2:	f88d 9003 	strb.w	r9, [sp, #3]
 80003a6:	f88d 8004 	strb.w	r8, [sp, #4]
 80003aa:	f88d 7005 	strb.w	r7, [sp, #5]
 80003ae:	f8ad 3006 	strh.w	r3, [sp, #6]
 80003b2:	e040      	b.n	8000436 <CAN_Diag_Generate_Reply+0x18e>
 80003b4:	4b88      	ldr	r3, [pc, #544]	; (80005d8 <CAN_Diag_Generate_Reply+0x330>)
 80003b6:	f893 a002 	ldrb.w	sl, [r3, #2]
 80003ba:	f893 9003 	ldrb.w	r9, [r3, #3]
 80003be:	f893 8004 	ldrb.w	r8, [r3, #4]
 80003c2:	795f      	ldrb	r7, [r3, #5]
 80003c4:	2000      	movs	r0, #0
 80003c6:	f36a 601f 	bfi	r0, sl, #24, #8
 80003ca:	f369 4017 	bfi	r0, r9, #16, #8
 80003ce:	f368 200f 	bfi	r0, r8, #8, #8
 80003d2:	f367 0007 	bfi	r0, r7, #0, #8
 80003d6:	f000 fc09 	bl	8000bec <Set_CRC_End_Address>
 80003da:	e7d8      	b.n	800038e <CAN_Diag_Generate_Reply+0xe6>
 80003dc:	f000 fc0c 	bl	8000bf8 <Start_CRC_Calculation>
 80003e0:	7823      	ldrb	r3, [r4, #0]
 80003e2:	f88d 7000 	strb.w	r7, [sp]
 80003e6:	43db      	mvns	r3, r3
 80003e8:	f88d 3001 	strb.w	r3, [sp, #1]
 80003ec:	f64a 53de 	movw	r3, #44510	; 0xadde
 80003f0:	f8ad 3002 	strh.w	r3, [sp, #2]
 80003f4:	f64e 73be 	movw	r3, #61374	; 0xefbe
 80003f8:	9301      	str	r3, [sp, #4]
 80003fa:	2301      	movs	r3, #1
 80003fc:	802b      	strh	r3, [r5, #0]
 80003fe:	2300      	movs	r3, #0
 8000400:	e056      	b.n	80004b0 <CAN_Diag_Generate_Reply+0x208>
 8000402:	f000 fc1b 	bl	8000c3c <Report_CRC_Result_Value>
 8000406:	7822      	ldrb	r2, [r4, #0]
 8000408:	f88d 7000 	strb.w	r7, [sp]
 800040c:	43d2      	mvns	r2, r2
 800040e:	f88d 2001 	strb.w	r2, [sp, #1]
 8000412:	f3c0 6207 	ubfx	r2, r0, #24, #8
 8000416:	ba43      	rev16	r3, r0
 8000418:	f88d 2002 	strb.w	r2, [sp, #2]
 800041c:	f3c0 4207 	ubfx	r2, r0, #16, #8
 8000420:	f8ad 3004 	strh.w	r3, [sp, #4]
 8000424:	f88d 2003 	strb.w	r2, [sp, #3]
 8000428:	f000 fbfc 	bl	8000c24 <Report_CRC_Progress>
 800042c:	2300      	movs	r3, #0
 800042e:	f88d 0006 	strb.w	r0, [sp, #6]
 8000432:	f88d 3007 	strb.w	r3, [sp, #7]
 8000436:	2201      	movs	r2, #1
 8000438:	802a      	strh	r2, [r5, #0]
 800043a:	e039      	b.n	80004b0 <CAN_Diag_Generate_Reply+0x208>
 800043c:	4b66      	ldr	r3, [pc, #408]	; (80005d8 <CAN_Diag_Generate_Reply+0x330>)
 800043e:	789a      	ldrb	r2, [r3, #2]
 8000440:	7999      	ldrb	r1, [r3, #6]
 8000442:	2000      	movs	r0, #0
 8000444:	f362 601f 	bfi	r0, r2, #24, #8
 8000448:	78da      	ldrb	r2, [r3, #3]
 800044a:	f362 4017 	bfi	r0, r2, #16, #8
 800044e:	791a      	ldrb	r2, [r3, #4]
 8000450:	f362 200f 	bfi	r0, r2, #8, #8
 8000454:	795a      	ldrb	r2, [r3, #5]
 8000456:	79db      	ldrb	r3, [r3, #7]
 8000458:	f362 0007 	bfi	r0, r2, #0, #8
 800045c:	4602      	mov	r2, r0
 800045e:	f36f 401f 	bfc	r0, #16, #16
 8000462:	f361 200f 	bfi	r0, r1, #8, #8
 8000466:	f363 0007 	bfi	r0, r3, #0, #8
 800046a:	f64e 439a 	movw	r3, #60570	; 0xec9a
 800046e:	f8ad 3000 	strh.w	r3, [sp]
 8000472:	4613      	mov	r3, r2
 8000474:	3001      	adds	r0, #1
 8000476:	f853 2b04 	ldr.w	r2, [r3], #4
 800047a:	f88d 2005 	strb.w	r2, [sp, #5]
 800047e:	f3c2 6107 	ubfx	r1, r2, #24, #8
 8000482:	f88d 1002 	strb.w	r1, [sp, #2]
 8000486:	f3c2 4107 	ubfx	r1, r2, #16, #8
 800048a:	f88d 1003 	strb.w	r1, [sp, #3]
 800048e:	f3c2 2107 	ubfx	r1, r2, #8, #8
 8000492:	2200      	movs	r2, #0
 8000494:	f8ad 2006 	strh.w	r2, [sp, #6]
 8000498:	4a4d      	ldr	r2, [pc, #308]	; (80005d0 <CAN_Diag_Generate_Reply+0x328>)
 800049a:	f88d 1004 	strb.w	r1, [sp, #4]
 800049e:	6013      	str	r3, [r2, #0]
 80004a0:	4b4c      	ldr	r3, [pc, #304]	; (80005d4 <CAN_Diag_Generate_Reply+0x32c>)
 80004a2:	b280      	uxth	r0, r0
 80004a4:	2202      	movs	r2, #2
 80004a6:	8028      	strh	r0, [r5, #0]
 80004a8:	801a      	strh	r2, [r3, #0]
 80004aa:	2801      	cmp	r0, #1
 80004ac:	d9a7      	bls.n	80003fe <CAN_Diag_Generate_Reply+0x156>
 80004ae:	2383      	movs	r3, #131	; 0x83
 80004b0:	7023      	strb	r3, [r4, #0]
 80004b2:	e70d      	b.n	80002d0 <CAN_Diag_Generate_Reply+0x28>
 80004b4:	4b48      	ldr	r3, [pc, #288]	; (80005d8 <CAN_Diag_Generate_Reply+0x330>)
 80004b6:	79df      	ldrb	r7, [r3, #7]
 80004b8:	4638      	mov	r0, r7
 80004ba:	f000 f8d3 	bl	8000664 <erase_flash_sector>
 80004be:	239a      	movs	r3, #154	; 0x9a
 80004c0:	f88d 3000 	strb.w	r3, [sp]
 80004c4:	7823      	ldrb	r3, [r4, #0]
 80004c6:	f88d 7007 	strb.w	r7, [sp, #7]
 80004ca:	43db      	mvns	r3, r3
 80004cc:	f88d 3001 	strb.w	r3, [sp, #1]
 80004d0:	2300      	movs	r3, #0
 80004d2:	f8ad 3002 	strh.w	r3, [sp, #2]
 80004d6:	f8ad 3004 	strh.w	r3, [sp, #4]
 80004da:	f88d 3006 	strb.w	r3, [sp, #6]
 80004de:	e7aa      	b.n	8000436 <CAN_Diag_Generate_Reply+0x18e>
 80004e0:	4b3d      	ldr	r3, [pc, #244]	; (80005d8 <CAN_Diag_Generate_Reply+0x330>)
 80004e2:	4a3e      	ldr	r2, [pc, #248]	; (80005dc <CAN_Diag_Generate_Reply+0x334>)
 80004e4:	f893 c002 	ldrb.w	ip, [r3, #2]
 80004e8:	78df      	ldrb	r7, [r3, #3]
 80004ea:	7918      	ldrb	r0, [r3, #4]
 80004ec:	7959      	ldrb	r1, [r3, #5]
 80004ee:	f8df e0fc 	ldr.w	lr, [pc, #252]	; 80005ec <CAN_Diag_Generate_Reply+0x344>
 80004f2:	f882 c003 	strb.w	ip, [r2, #3]
 80004f6:	7097      	strb	r7, [r2, #2]
 80004f8:	7050      	strb	r0, [r2, #1]
 80004fa:	7011      	strb	r1, [r2, #0]
 80004fc:	799a      	ldrb	r2, [r3, #6]
 80004fe:	79db      	ldrb	r3, [r3, #7]
 8000500:	f88e 2001 	strb.w	r2, [lr, #1]
 8000504:	f88e 3000 	strb.w	r3, [lr]
 8000508:	f64b 6e9a 	movw	lr, #48794	; 0xbe9a
 800050c:	f8ad e000 	strh.w	lr, [sp]
 8000510:	f88d c002 	strb.w	ip, [sp, #2]
 8000514:	f88d 7003 	strb.w	r7, [sp, #3]
 8000518:	f88d 0004 	strb.w	r0, [sp, #4]
 800051c:	f88d 1005 	strb.w	r1, [sp, #5]
 8000520:	f88d 2006 	strb.w	r2, [sp, #6]
 8000524:	f88d 3007 	strb.w	r3, [sp, #7]
 8000528:	e767      	b.n	80003fa <CAN_Diag_Generate_Reply+0x152>
 800052a:	4b2b      	ldr	r3, [pc, #172]	; (80005d8 <CAN_Diag_Generate_Reply+0x330>)
 800052c:	4f2c      	ldr	r7, [pc, #176]	; (80005e0 <CAN_Diag_Generate_Reply+0x338>)
 800052e:	789a      	ldrb	r2, [r3, #2]
 8000530:	70fa      	strb	r2, [r7, #3]
 8000532:	78da      	ldrb	r2, [r3, #3]
 8000534:	70ba      	strb	r2, [r7, #2]
 8000536:	791a      	ldrb	r2, [r3, #4]
 8000538:	f8df 80b0 	ldr.w	r8, [pc, #176]	; 80005ec <CAN_Diag_Generate_Reply+0x344>
 800053c:	707a      	strb	r2, [r7, #1]
 800053e:	795a      	ldrb	r2, [r3, #5]
 8000540:	703a      	strb	r2, [r7, #0]
 8000542:	799a      	ldrb	r2, [r3, #6]
 8000544:	f888 2003 	strb.w	r2, [r8, #3]
 8000548:	4a24      	ldr	r2, [pc, #144]	; (80005dc <CAN_Diag_Generate_Reply+0x334>)
 800054a:	79db      	ldrb	r3, [r3, #7]
 800054c:	f888 3002 	strb.w	r3, [r8, #2]
 8000550:	6812      	ldr	r2, [r2, #0]
 8000552:	683b      	ldr	r3, [r7, #0]
 8000554:	4923      	ldr	r1, [pc, #140]	; (80005e4 <CAN_Diag_Generate_Reply+0x33c>)
 8000556:	f8d8 0000 	ldr.w	r0, [r8]
 800055a:	e9c1 2300 	strd	r2, r3, [r1]
 800055e:	f000 f8a3 	bl	80006a8 <program_flash_double_word>
 8000562:	239a      	movs	r3, #154	; 0x9a
 8000564:	f88d 3000 	strb.w	r3, [sp]
 8000568:	7823      	ldrb	r3, [r4, #0]
 800056a:	43db      	mvns	r3, r3
 800056c:	f88d 3001 	strb.w	r3, [sp, #1]
 8000570:	887b      	ldrh	r3, [r7, #2]
 8000572:	ba5b      	rev16	r3, r3
 8000574:	f8ad 3002 	strh.w	r3, [sp, #2]
 8000578:	883b      	ldrh	r3, [r7, #0]
 800057a:	ba5b      	rev16	r3, r3
 800057c:	f8ad 3004 	strh.w	r3, [sp, #4]
 8000580:	f8b8 3002 	ldrh.w	r3, [r8, #2]
 8000584:	ba5b      	rev16	r3, r3
 8000586:	f8ad 3006 	strh.w	r3, [sp, #6]
 800058a:	e736      	b.n	80003fa <CAN_Diag_Generate_Reply+0x152>
 800058c:	4b12      	ldr	r3, [pc, #72]	; (80005d8 <CAN_Diag_Generate_Reply+0x330>)
 800058e:	f893 a002 	ldrb.w	sl, [r3, #2]
 8000592:	f893 9003 	ldrb.w	r9, [r3, #3]
 8000596:	f893 8004 	ldrb.w	r8, [r3, #4]
 800059a:	795f      	ldrb	r7, [r3, #5]
 800059c:	4b12      	ldr	r3, [pc, #72]	; (80005e8 <CAN_Diag_Generate_Reply+0x340>)
 800059e:	2000      	movs	r0, #0
 80005a0:	f36a 601f 	bfi	r0, sl, #24, #8
 80005a4:	f369 4017 	bfi	r0, r9, #16, #8
 80005a8:	f368 200f 	bfi	r0, r8, #8, #8
 80005ac:	f367 0007 	bfi	r0, r7, #0, #8
 80005b0:	4298      	cmp	r0, r3
 80005b2:	f47f aeec 	bne.w	800038e <CAN_Diag_Generate_Reply+0xe6>
 80005b6:	f7ff fe5d 	bl	8000274 <doJumpToApplication>
 80005ba:	e6e8      	b.n	800038e <CAN_Diag_Generate_Reply+0xe6>
 80005bc:	7023      	strb	r3, [r4, #0]
 80005be:	e699      	b.n	80002f4 <CAN_Diag_Generate_Reply+0x4c>
 80005c0:	200000c4 	.word	0x200000c4
 80005c4:	200000c8 	.word	0x200000c8
 80005c8:	20000110 	.word	0x20000110
 80005cc:	2000010c 	.word	0x2000010c
 80005d0:	20000114 	.word	0x20000114
 80005d4:	200000c6 	.word	0x200000c6
 80005d8:	200000ca 	.word	0x200000ca
 80005dc:	20000108 	.word	0x20000108
 80005e0:	20000104 	.word	0x20000104
 80005e4:	200000f8 	.word	0x200000f8
 80005e8:	deadbeef 	.word	0xdeadbeef
 80005ec:	20000100 	.word	0x20000100

080005f0 <CAN_RxCheckMsgPendingCallback>:
 80005f0:	6802      	ldr	r2, [r0, #0]
 80005f2:	4b16      	ldr	r3, [pc, #88]	; (800064c <CAN_RxCheckMsgPendingCallback+0x5c>)
 80005f4:	429a      	cmp	r2, r3
 80005f6:	b570      	push	{r4, r5, r6, lr}
 80005f8:	4604      	mov	r4, r0
 80005fa:	d125      	bne.n	8000648 <CAN_RxCheckMsgPendingCallback+0x58>
 80005fc:	2100      	movs	r1, #0
 80005fe:	f000 fe10 	bl	8001222 <HAL_CAN_GetRxFifoFillLevel>
 8000602:	b2c0      	uxtb	r0, r0
 8000604:	b1d8      	cbz	r0, 800063e <CAN_RxCheckMsgPendingCallback+0x4e>
 8000606:	4d12      	ldr	r5, [pc, #72]	; (8000650 <CAN_RxCheckMsgPendingCallback+0x60>)
 8000608:	4b12      	ldr	r3, [pc, #72]	; (8000654 <CAN_RxCheckMsgPendingCallback+0x64>)
 800060a:	4e13      	ldr	r6, [pc, #76]	; (8000658 <CAN_RxCheckMsgPendingCallback+0x68>)
 800060c:	4a13      	ldr	r2, [pc, #76]	; (800065c <CAN_RxCheckMsgPendingCallback+0x6c>)
 800060e:	601d      	str	r5, [r3, #0]
 8000610:	2100      	movs	r1, #0
 8000612:	462b      	mov	r3, r5
 8000614:	4620      	mov	r0, r4
 8000616:	6032      	str	r2, [r6, #0]
 8000618:	f000 fd87 	bl	800112a <HAL_CAN_GetRxMessage>
 800061c:	b978      	cbnz	r0, 800063e <CAN_RxCheckMsgPendingCallback+0x4e>
 800061e:	4a10      	ldr	r2, [pc, #64]	; (8000660 <CAN_RxCheckMsgPendingCallback+0x70>)
 8000620:	7813      	ldrb	r3, [r2, #0]
 8000622:	3301      	adds	r3, #1
 8000624:	7013      	strb	r3, [r2, #0]
 8000626:	6833      	ldr	r3, [r6, #0]
 8000628:	689a      	ldr	r2, [r3, #8]
 800062a:	b942      	cbnz	r2, 800063e <CAN_RxCheckMsgPendingCallback+0x4e>
 800062c:	681b      	ldr	r3, [r3, #0]
 800062e:	2b55      	cmp	r3, #85	; 0x55
 8000630:	d105      	bne.n	800063e <CAN_RxCheckMsgPendingCallback+0x4e>
 8000632:	2001      	movs	r0, #1
 8000634:	f000 f862 	bl	80006fc <Request_Green_Led_State>
 8000638:	4628      	mov	r0, r5
 800063a:	f7ff fdfd 	bl	8000238 <CAN_Diag_Decode_Request>
 800063e:	4620      	mov	r0, r4
 8000640:	e8bd 4070 	ldmia.w	sp!, {r4, r5, r6, lr}
 8000644:	f7ff be30 	b.w	80002a8 <CAN_Diag_Generate_Reply>
 8000648:	bd70      	pop	{r4, r5, r6, pc}
 800064a:	bf00      	nop
 800064c:	40006400 	.word	0x40006400
 8000650:	200000d3 	.word	0x200000d3
 8000654:	20000118 	.word	0x20000118
 8000658:	2000011c 	.word	0x2000011c
 800065c:	200000dc 	.word	0x200000dc
 8000660:	200000bc 	.word	0x200000bc

08000664 <erase_flash_sector>:
 8000664:	b57f      	push	{r0, r1, r2, r3, r4, r5, r6, lr}
 8000666:	2803      	cmp	r0, #3
 8000668:	f04f 0300 	mov.w	r3, #0
 800066c:	9301      	str	r3, [sp, #4]
 800066e:	bf9d      	ittte	ls
 8000670:	4b0b      	ldrls	r3, [pc, #44]	; (80006a0 <erase_flash_sector+0x3c>)
 8000672:	5c1a      	ldrbls	r2, [r3, r0]
 8000674:	4b0b      	ldrls	r3, [pc, #44]	; (80006a4 <erase_flash_sector+0x40>)
 8000676:	461a      	movhi	r2, r3
 8000678:	bf98      	it	ls
 800067a:	5c1b      	ldrbls	r3, [r3, r0]
 800067c:	9204      	str	r2, [sp, #16]
 800067e:	2100      	movs	r1, #0
 8000680:	2201      	movs	r2, #1
 8000682:	9203      	str	r2, [sp, #12]
 8000684:	9305      	str	r3, [sp, #20]
 8000686:	9102      	str	r1, [sp, #8]
 8000688:	f000 ff1e 	bl	80014c8 <HAL_FLASH_Unlock>
 800068c:	a901      	add	r1, sp, #4
 800068e:	a802      	add	r0, sp, #8
 8000690:	f001 f808 	bl	80016a4 <HAL_FLASHEx_Erase>
 8000694:	f000 ff2a 	bl	80014ec <HAL_FLASH_Lock>
 8000698:	b007      	add	sp, #28
 800069a:	f85d fb04 	ldr.w	pc, [sp], #4
 800069e:	bf00      	nop
 80006a0:	08002334 	.word	0x08002334
 80006a4:	08002338 	.word	0x08002338

080006a8 <program_flash_double_word>:
 80006a8:	b51f      	push	{r0, r1, r2, r3, r4, lr}
 80006aa:	e9cd 2002 	strd	r2, r0, [sp, #8]
 80006ae:	9301      	str	r3, [sp, #4]
 80006b0:	f000 ff0a 	bl	80014c8 <HAL_FLASH_Unlock>
 80006b4:	e9dd 3201 	ldrd	r3, r2, [sp, #4]
 80006b8:	9903      	ldr	r1, [sp, #12]
 80006ba:	2000      	movs	r0, #0
 80006bc:	f000 ff4c 	bl	8001558 <HAL_FLASH_Program>
 80006c0:	b005      	add	sp, #20
 80006c2:	f85d eb04 	ldr.w	lr, [sp], #4
 80006c6:	f000 bf11 	b.w	80014ec <HAL_FLASH_Lock>
	...

080006cc <Set_Green_Led_On_Off>:
 80006cc:	2801      	cmp	r0, #1
 80006ce:	4602      	mov	r2, r0
 80006d0:	f04f 0140 	mov.w	r1, #64	; 0x40
 80006d4:	4802      	ldr	r0, [pc, #8]	; (80006e0 <Set_Green_Led_On_Off+0x14>)
 80006d6:	bf18      	it	ne
 80006d8:	2200      	movne	r2, #0
 80006da:	f001 b915 	b.w	8001908 <HAL_GPIO_WritePin>
 80006de:	bf00      	nop
 80006e0:	48000400 	.word	0x48000400

080006e4 <Set_Red_Led_On_Off>:
 80006e4:	2801      	cmp	r0, #1
 80006e6:	4602      	mov	r2, r0
 80006e8:	f04f 0180 	mov.w	r1, #128	; 0x80
 80006ec:	4802      	ldr	r0, [pc, #8]	; (80006f8 <Set_Red_Led_On_Off+0x14>)
 80006ee:	bf18      	it	ne
 80006f0:	2200      	movne	r2, #0
 80006f2:	f001 b909 	b.w	8001908 <HAL_GPIO_WritePin>
 80006f6:	bf00      	nop
 80006f8:	48000400 	.word	0x48000400

080006fc <Request_Green_Led_State>:
 80006fc:	4b01      	ldr	r3, [pc, #4]	; (8000704 <Request_Green_Led_State+0x8>)
 80006fe:	7018      	strb	r0, [r3, #0]
 8000700:	4770      	bx	lr
 8000702:	bf00      	nop
 8000704:	20000122 	.word	0x20000122

08000708 <Update_Green_Led_State>:
 8000708:	b5f8      	push	{r3, r4, r5, r6, r7, lr}
 800070a:	4d09      	ldr	r5, [pc, #36]	; (8000730 <Update_Green_Led_State+0x28>)
 800070c:	882c      	ldrh	r4, [r5, #0]
 800070e:	b114      	cbz	r4, 8000716 <Update_Green_Led_State+0xe>
 8000710:	3c01      	subs	r4, #1
 8000712:	802c      	strh	r4, [r5, #0]
 8000714:	bdf8      	pop	{r3, r4, r5, r6, r7, pc}
 8000716:	4e07      	ldr	r6, [pc, #28]	; (8000734 <Update_Green_Led_State+0x2c>)
 8000718:	7830      	ldrb	r0, [r6, #0]
 800071a:	2801      	cmp	r0, #1
 800071c:	f04f 0764 	mov.w	r7, #100	; 0x64
 8000720:	bf18      	it	ne
 8000722:	4620      	movne	r0, r4
 8000724:	f7ff ffd2 	bl	80006cc <Set_Green_Led_On_Off>
 8000728:	802f      	strh	r7, [r5, #0]
 800072a:	7034      	strb	r4, [r6, #0]
 800072c:	e7f2      	b.n	8000714 <Update_Green_Led_State+0xc>
 800072e:	bf00      	nop
 8000730:	20000120 	.word	0x20000120
 8000734:	20000122 	.word	0x20000122

08000738 <Update_Red_Led_State>:
 8000738:	b570      	push	{r4, r5, r6, lr}
 800073a:	4d0f      	ldr	r5, [pc, #60]	; (8000778 <Update_Red_Led_State+0x40>)
 800073c:	882c      	ldrh	r4, [r5, #0]
 800073e:	b114      	cbz	r4, 8000746 <Update_Red_Led_State+0xe>
 8000740:	3c01      	subs	r4, #1
 8000742:	802c      	strh	r4, [r5, #0]
 8000744:	bd70      	pop	{r4, r5, r6, pc}
 8000746:	4e0d      	ldr	r6, [pc, #52]	; (800077c <Update_Red_Led_State+0x44>)
 8000748:	7830      	ldrb	r0, [r6, #0]
 800074a:	b138      	cbz	r0, 800075c <Update_Red_Led_State+0x24>
 800074c:	2801      	cmp	r0, #1
 800074e:	d00d      	beq.n	800076c <Update_Red_Led_State+0x34>
 8000750:	4620      	mov	r0, r4
 8000752:	f7ff ffc7 	bl	80006e4 <Set_Red_Led_On_Off>
 8000756:	f44f 7348 	mov.w	r3, #800	; 0x320
 800075a:	e00a      	b.n	8000772 <Update_Red_Led_State+0x3a>
 800075c:	f7ff ffc2 	bl	80006e4 <Set_Red_Led_On_Off>
 8000760:	f44f 7348 	mov.w	r3, #800	; 0x320
 8000764:	802b      	strh	r3, [r5, #0]
 8000766:	2301      	movs	r3, #1
 8000768:	7033      	strb	r3, [r6, #0]
 800076a:	e7eb      	b.n	8000744 <Update_Red_Led_State+0xc>
 800076c:	f7ff ffba 	bl	80006e4 <Set_Red_Led_On_Off>
 8000770:	23c8      	movs	r3, #200	; 0xc8
 8000772:	802b      	strh	r3, [r5, #0]
 8000774:	7034      	strb	r4, [r6, #0]
 8000776:	e7e5      	b.n	8000744 <Update_Red_Led_State+0xc>
 8000778:	20000124 	.word	0x20000124
 800077c:	20000126 	.word	0x20000126

08000780 <SystemClock_Config>:
 8000780:	b510      	push	{r4, lr}
 8000782:	b096      	sub	sp, #88	; 0x58
 8000784:	2244      	movs	r2, #68	; 0x44
 8000786:	2100      	movs	r1, #0
 8000788:	a805      	add	r0, sp, #20
 800078a:	f001 fd9b 	bl	80022c4 <memset>
 800078e:	2214      	movs	r2, #20
 8000790:	2100      	movs	r1, #0
 8000792:	4668      	mov	r0, sp
 8000794:	f001 fd96 	bl	80022c4 <memset>
 8000798:	f44f 7000 	mov.w	r0, #512	; 0x200
 800079c:	f001 f8c2 	bl	8001924 <HAL_PWREx_ControlVoltageScaling>
 80007a0:	b108      	cbz	r0, 80007a6 <SystemClock_Config+0x26>
 80007a2:	b672      	cpsid	i
 80007a4:	e7fe      	b.n	80007a4 <SystemClock_Config+0x24>
 80007a6:	2201      	movs	r2, #1
 80007a8:	f44f 3380 	mov.w	r3, #65536	; 0x10000
 80007ac:	e9cd 2305 	strd	r2, r3, [sp, #20]
 80007b0:	2403      	movs	r4, #3
 80007b2:	2302      	movs	r3, #2
 80007b4:	9211      	str	r2, [sp, #68]	; 0x44
 80007b6:	210a      	movs	r1, #10
 80007b8:	2207      	movs	r2, #7
 80007ba:	a805      	add	r0, sp, #20
 80007bc:	e9cd 340f 	strd	r3, r4, [sp, #60]	; 0x3c
 80007c0:	e9cd 1212 	strd	r1, r2, [sp, #72]	; 0x48
 80007c4:	e9cd 3314 	strd	r3, r3, [sp, #80]	; 0x50
 80007c8:	f001 f96c 	bl	8001aa4 <HAL_RCC_OscConfig>
 80007cc:	b108      	cbz	r0, 80007d2 <SystemClock_Config+0x52>
 80007ce:	b672      	cpsid	i
 80007d0:	e7fe      	b.n	80007d0 <SystemClock_Config+0x50>
 80007d2:	e9cd 0002 	strd	r0, r0, [sp, #8]
 80007d6:	230f      	movs	r3, #15
 80007d8:	9004      	str	r0, [sp, #16]
 80007da:	2104      	movs	r1, #4
 80007dc:	4668      	mov	r0, sp
 80007de:	e9cd 3400 	strd	r3, r4, [sp]
 80007e2:	f001 fc03 	bl	8001fec <HAL_RCC_ClockConfig>
 80007e6:	b108      	cbz	r0, 80007ec <SystemClock_Config+0x6c>
 80007e8:	b672      	cpsid	i
 80007ea:	e7fe      	b.n	80007ea <SystemClock_Config+0x6a>
 80007ec:	b016      	add	sp, #88	; 0x58
 80007ee:	bd10      	pop	{r4, pc}

080007f0 <main>:
 80007f0:	e92d 47f0 	stmdb	sp!, {r4, r5, r6, r7, r8, r9, sl, lr}
 80007f4:	4ba3      	ldr	r3, [pc, #652]	; (8000a84 <main+0x294>)
 80007f6:	4aa4      	ldr	r2, [pc, #656]	; (8000a88 <main+0x298>)
 80007f8:	f8d3 1fc0 	ldr.w	r1, [r3, #4032]	; 0xfc0
 80007fc:	4291      	cmp	r1, r2
 80007fe:	b08a      	sub	sp, #40	; 0x28
 8000800:	f000 810c 	beq.w	8000a1c <main+0x22c>
 8000804:	4ba1      	ldr	r3, [pc, #644]	; (8000a8c <main+0x29c>)
 8000806:	f8d3 7ff8 	ldr.w	r7, [r3, #4088]	; 0xff8
 800080a:	1abc      	subs	r4, r7, r2
 800080c:	4267      	negs	r7, r4
 800080e:	4167      	adcs	r7, r4
 8000810:	f000 faf2 	bl	8000df8 <HAL_Init>
 8000814:	f7ff ffb4 	bl	8000780 <SystemClock_Config>
 8000818:	2214      	movs	r2, #20
 800081a:	2100      	movs	r1, #0
 800081c:	eb0d 0002 	add.w	r0, sp, r2
 8000820:	f001 fd50 	bl	80022c4 <memset>
 8000824:	4b9a      	ldr	r3, [pc, #616]	; (8000a90 <main+0x2a0>)
 8000826:	489b      	ldr	r0, [pc, #620]	; (8000a94 <main+0x2a4>)
 8000828:	6cda      	ldr	r2, [r3, #76]	; 0x4c
 800082a:	f042 0202 	orr.w	r2, r2, #2
 800082e:	64da      	str	r2, [r3, #76]	; 0x4c
 8000830:	6cda      	ldr	r2, [r3, #76]	; 0x4c
 8000832:	f002 0202 	and.w	r2, r2, #2
 8000836:	9200      	str	r2, [sp, #0]
 8000838:	9a00      	ldr	r2, [sp, #0]
 800083a:	6cda      	ldr	r2, [r3, #76]	; 0x4c
 800083c:	f042 0201 	orr.w	r2, r2, #1
 8000840:	64da      	str	r2, [r3, #76]	; 0x4c
 8000842:	6cda      	ldr	r2, [r3, #76]	; 0x4c
 8000844:	f002 0201 	and.w	r2, r2, #1
 8000848:	9201      	str	r2, [sp, #4]
 800084a:	9a01      	ldr	r2, [sp, #4]
 800084c:	6cda      	ldr	r2, [r3, #76]	; 0x4c
 800084e:	f042 0204 	orr.w	r2, r2, #4
 8000852:	64da      	str	r2, [r3, #76]	; 0x4c
 8000854:	6cda      	ldr	r2, [r3, #76]	; 0x4c
 8000856:	f002 0204 	and.w	r2, r2, #4
 800085a:	9202      	str	r2, [sp, #8]
 800085c:	9a02      	ldr	r2, [sp, #8]
 800085e:	6cda      	ldr	r2, [r3, #76]	; 0x4c
 8000860:	f042 0280 	orr.w	r2, r2, #128	; 0x80
 8000864:	64da      	str	r2, [r3, #76]	; 0x4c
 8000866:	6cda      	ldr	r2, [r3, #76]	; 0x4c
 8000868:	f002 0280 	and.w	r2, r2, #128	; 0x80
 800086c:	9203      	str	r2, [sp, #12]
 800086e:	9a03      	ldr	r2, [sp, #12]
 8000870:	6cda      	ldr	r2, [r3, #76]	; 0x4c
 8000872:	f042 0210 	orr.w	r2, r2, #16
 8000876:	64da      	str	r2, [r3, #76]	; 0x4c
 8000878:	6cdb      	ldr	r3, [r3, #76]	; 0x4c
 800087a:	f003 0310 	and.w	r3, r3, #16
 800087e:	9304      	str	r3, [sp, #16]
 8000880:	2200      	movs	r2, #0
 8000882:	f241 01e3 	movw	r1, #4323	; 0x10e3
 8000886:	9b04      	ldr	r3, [sp, #16]
 8000888:	f001 f83e 	bl	8001908 <HAL_GPIO_WritePin>
 800088c:	4882      	ldr	r0, [pc, #520]	; (8000a98 <main+0x2a8>)
 800088e:	2200      	movs	r2, #0
 8000890:	f44f 7100 	mov.w	r1, #512	; 0x200
 8000894:	f001 f838 	bl	8001908 <HAL_GPIO_WritePin>
 8000898:	2200      	movs	r2, #0
 800089a:	2180      	movs	r1, #128	; 0x80
 800089c:	f04f 4090 	mov.w	r0, #1207959552	; 0x48000000
 80008a0:	f001 f832 	bl	8001908 <HAL_GPIO_WritePin>
 80008a4:	2400      	movs	r4, #0
 80008a6:	2502      	movs	r5, #2
 80008a8:	2601      	movs	r6, #1
 80008aa:	f44f 6381 	mov.w	r3, #1032	; 0x408
 80008ae:	4879      	ldr	r0, [pc, #484]	; (8000a94 <main+0x2a4>)
 80008b0:	9609      	str	r6, [sp, #36]	; 0x24
 80008b2:	a905      	add	r1, sp, #20
 80008b4:	e9cd 3505 	strd	r3, r5, [sp, #20]
 80008b8:	e9cd 4407 	strd	r4, r4, [sp, #28]
 80008bc:	f000 ff60 	bl	8001780 <HAL_GPIO_Init>
 80008c0:	f44f 4300 	mov.w	r3, #32768	; 0x8000
 80008c4:	a905      	add	r1, sp, #20
 80008c6:	f04f 4090 	mov.w	r0, #1207959552	; 0x48000000
 80008ca:	e9cd 3505 	strd	r3, r5, [sp, #20]
 80008ce:	9609      	str	r6, [sp, #36]	; 0x24
 80008d0:	e9cd 4407 	strd	r4, r4, [sp, #28]
 80008d4:	f000 ff54 	bl	8001780 <HAL_GPIO_Init>
 80008d8:	f44f 53b8 	mov.w	r3, #5888	; 0x1700
 80008dc:	a905      	add	r1, sp, #20
 80008de:	f04f 4090 	mov.w	r0, #1207959552	; 0x48000000
 80008e2:	e9cd 3505 	strd	r3, r5, [sp, #20]
 80008e6:	9609      	str	r6, [sp, #36]	; 0x24
 80008e8:	e9cd 4407 	strd	r4, r4, [sp, #28]
 80008ec:	f000 ff48 	bl	8001780 <HAL_GPIO_Init>
 80008f0:	23e0      	movs	r3, #224	; 0xe0
 80008f2:	4868      	ldr	r0, [pc, #416]	; (8000a94 <main+0x2a4>)
 80008f4:	a905      	add	r1, sp, #20
 80008f6:	e9cd 3605 	strd	r3, r6, [sp, #20]
 80008fa:	e9cd 4407 	strd	r4, r4, [sp, #28]
 80008fe:	f000 ff3f 	bl	8001780 <HAL_GPIO_Init>
 8000902:	f44f 6340 	mov.w	r3, #3072	; 0xc00
 8000906:	4864      	ldr	r0, [pc, #400]	; (8000a98 <main+0x2a8>)
 8000908:	9407      	str	r4, [sp, #28]
 800090a:	a905      	add	r1, sp, #20
 800090c:	e9cd 3405 	strd	r3, r4, [sp, #20]
 8000910:	f000 ff36 	bl	8001780 <HAL_GPIO_Init>
 8000914:	f44f 7300 	mov.w	r3, #512	; 0x200
 8000918:	485f      	ldr	r0, [pc, #380]	; (8000a98 <main+0x2a8>)
 800091a:	a905      	add	r1, sp, #20
 800091c:	e9cd 3605 	strd	r3, r6, [sp, #20]
 8000920:	e9cd 4507 	strd	r4, r5, [sp, #28]
 8000924:	f04f 0980 	mov.w	r9, #128	; 0x80
 8000928:	f000 ff2a 	bl	8001780 <HAL_GPIO_Init>
 800092c:	485a      	ldr	r0, [pc, #360]	; (8000a98 <main+0x2a8>)
 800092e:	9607      	str	r6, [sp, #28]
 8000930:	a905      	add	r1, sp, #20
 8000932:	f04f 0a0b 	mov.w	sl, #11
 8000936:	e9cd 9405 	strd	r9, r4, [sp, #20]
 800093a:	f000 ff21 	bl	8001780 <HAL_GPIO_Init>
 800093e:	230f      	movs	r3, #15
 8000940:	4855      	ldr	r0, [pc, #340]	; (8000a98 <main+0x2a8>)
 8000942:	9407      	str	r4, [sp, #28]
 8000944:	a905      	add	r1, sp, #20
 8000946:	e9cd 3a05 	strd	r3, sl, [sp, #20]
 800094a:	f000 ff19 	bl	8001780 <HAL_GPIO_Init>
 800094e:	230c      	movs	r3, #12
 8000950:	f04f 0803 	mov.w	r8, #3
 8000954:	e9cd 3505 	strd	r3, r5, [sp, #20]
 8000958:	a905      	add	r1, sp, #20
 800095a:	2307      	movs	r3, #7
 800095c:	f04f 4090 	mov.w	r0, #1207959552	; 0x48000000
 8000960:	e9cd 8308 	strd	r8, r3, [sp, #32]
 8000964:	9407      	str	r4, [sp, #28]
 8000966:	f000 ff0b 	bl	8001780 <HAL_GPIO_Init>
 800096a:	2330      	movs	r3, #48	; 0x30
 800096c:	a905      	add	r1, sp, #20
 800096e:	f04f 4090 	mov.w	r0, #1207959552	; 0x48000000
 8000972:	e9cd 3805 	strd	r3, r8, [sp, #20]
 8000976:	9407      	str	r4, [sp, #28]
 8000978:	f000 ff02 	bl	8001780 <HAL_GPIO_Init>
 800097c:	f44f 4360 	mov.w	r3, #57344	; 0xe000
 8000980:	e9cd 3505 	strd	r3, r5, [sp, #20]
 8000984:	4843      	ldr	r0, [pc, #268]	; (8000a94 <main+0x2a4>)
 8000986:	2305      	movs	r3, #5
 8000988:	a905      	add	r1, sp, #20
 800098a:	9309      	str	r3, [sp, #36]	; 0x24
 800098c:	e9cd 4807 	strd	r4, r8, [sp, #28]
 8000990:	f000 fef6 	bl	8001780 <HAL_GPIO_Init>
 8000994:	f44f 5380 	mov.w	r3, #4096	; 0x1000
 8000998:	483e      	ldr	r0, [pc, #248]	; (8000a94 <main+0x2a4>)
 800099a:	a905      	add	r1, sp, #20
 800099c:	e9cd 3605 	strd	r3, r6, [sp, #20]
 80009a0:	e9cd 4807 	strd	r4, r8, [sp, #28]
 80009a4:	f000 feec 	bl	8001780 <HAL_GPIO_Init>
 80009a8:	a905      	add	r1, sp, #20
 80009aa:	f04f 4090 	mov.w	r0, #1207959552	; 0x48000000
 80009ae:	e9cd 5a05 	strd	r5, sl, [sp, #20]
 80009b2:	9407      	str	r4, [sp, #28]
 80009b4:	f000 fee4 	bl	8001780 <HAL_GPIO_Init>
 80009b8:	a905      	add	r1, sp, #20
 80009ba:	f04f 4090 	mov.w	r0, #1207959552	; 0x48000000
 80009be:	e9cd 9605 	strd	r9, r6, [sp, #20]
 80009c2:	e9cd 4507 	strd	r4, r5, [sp, #28]
 80009c6:	f000 fedb 	bl	8001780 <HAL_GPIO_Init>
 80009ca:	4832      	ldr	r0, [pc, #200]	; (8000a94 <main+0x2a4>)
 80009cc:	a905      	add	r1, sp, #20
 80009ce:	e9cd 8605 	strd	r8, r6, [sp, #20]
 80009d2:	e9cd 4507 	strd	r4, r5, [sp, #28]
 80009d6:	f000 fed3 	bl	8001780 <HAL_GPIO_Init>
 80009da:	f44f 7320 	mov.w	r3, #640	; 0x280
 80009de:	482f      	ldr	r0, [pc, #188]	; (8000a9c <main+0x2ac>)
 80009e0:	4d2f      	ldr	r5, [pc, #188]	; (8000aa0 <main+0x2b0>)
 80009e2:	9407      	str	r4, [sp, #28]
 80009e4:	a905      	add	r1, sp, #20
 80009e6:	e9cd 3405 	strd	r3, r4, [sp, #20]
 80009ea:	f000 fec9 	bl	8001780 <HAL_GPIO_Init>
 80009ee:	492d      	ldr	r1, [pc, #180]	; (8000aa4 <main+0x2b4>)
 80009f0:	83ac      	strh	r4, [r5, #28]
 80009f2:	2304      	movs	r3, #4
 80009f4:	e9c5 1300 	strd	r1, r3, [r5]
 80009f8:	f44f 2070 	mov.w	r0, #983040	; 0xf0000
 80009fc:	f44f 1300 	mov.w	r3, #2097152	; 0x200000
 8000a00:	e9c5 0304 	strd	r0, r3, [r5, #16]
 8000a04:	f04f 7380 	mov.w	r3, #16777216	; 0x1000000
 8000a08:	61ab      	str	r3, [r5, #24]
 8000a0a:	4628      	mov	r0, r5
 8000a0c:	e9c5 4402 	strd	r4, r4, [r5, #8]
 8000a10:	f000 fa14 	bl	8000e3c <HAL_CAN_Init>
 8000a14:	4606      	mov	r6, r0
 8000a16:	b128      	cbz	r0, 8000a24 <main+0x234>
 8000a18:	b672      	cpsid	i
 8000a1a:	e7fe      	b.n	8000a1a <main+0x22a>
 8000a1c:	2700      	movs	r7, #0
 8000a1e:	f8c3 7fc0 	str.w	r7, [r3, #4032]	; 0xfc0
 8000a22:	e6f5      	b.n	8000810 <main+0x20>
 8000a24:	4628      	mov	r0, r5
 8000a26:	f7ff fbd1 	bl	80001cc <CAN_Init_Diag_Messages>
 8000a2a:	4c1f      	ldr	r4, [pc, #124]	; (8000aa8 <main+0x2b8>)
 8000a2c:	4a1f      	ldr	r2, [pc, #124]	; (8000aac <main+0x2bc>)
 8000a2e:	9607      	str	r6, [sp, #28]
 8000a30:	f240 331f 	movw	r3, #799	; 0x31f
 8000a34:	e9c4 2300 	strd	r2, r3, [r4]
 8000a38:	4620      	mov	r0, r4
 8000a3a:	f240 33e7 	movw	r3, #999	; 0x3e7
 8000a3e:	e9cd 6605 	strd	r6, r6, [sp, #20]
 8000a42:	60a6      	str	r6, [r4, #8]
 8000a44:	60e3      	str	r3, [r4, #12]
 8000a46:	61a6      	str	r6, [r4, #24]
 8000a48:	f001 fbda 	bl	8002200 <HAL_TIM_Base_Init>
 8000a4c:	b108      	cbz	r0, 8000a52 <main+0x262>
 8000a4e:	b672      	cpsid	i
 8000a50:	e7fe      	b.n	8000a50 <main+0x260>
 8000a52:	9005      	str	r0, [sp, #20]
 8000a54:	9007      	str	r0, [sp, #28]
 8000a56:	a905      	add	r1, sp, #20
 8000a58:	4620      	mov	r0, r4
 8000a5a:	f001 fc01 	bl	8002260 <HAL_TIMEx_MasterConfigSynchronization>
 8000a5e:	b108      	cbz	r0, 8000a64 <main+0x274>
 8000a60:	b672      	cpsid	i
 8000a62:	e7fe      	b.n	8000a62 <main+0x272>
 8000a64:	4d12      	ldr	r5, [pc, #72]	; (8000ab0 <main+0x2c0>)
 8000a66:	4b13      	ldr	r3, [pc, #76]	; (8000ab4 <main+0x2c4>)
 8000a68:	80a8      	strh	r0, [r5, #4]
 8000a6a:	e9c5 0005 	strd	r0, r0, [r5, #20]
 8000a6e:	4628      	mov	r0, r5
 8000a70:	602b      	str	r3, [r5, #0]
 8000a72:	f8c5 8020 	str.w	r8, [r5, #32]
 8000a76:	f000 fc8b 	bl	8001390 <HAL_CRC_Init>
 8000a7a:	4606      	mov	r6, r0
 8000a7c:	b1e0      	cbz	r0, 8000ab8 <main+0x2c8>
 8000a7e:	b672      	cpsid	i
 8000a80:	e7fe      	b.n	8000a80 <main+0x290>
 8000a82:	bf00      	nop
 8000a84:	2000f000 	.word	0x2000f000
 8000a88:	deadbeef 	.word	0xdeadbeef
 8000a8c:	0802f000 	.word	0x0802f000
 8000a90:	40021000 	.word	0x40021000
 8000a94:	48000400 	.word	0x48000400
 8000a98:	48000800 	.word	0x48000800
 8000a9c:	48001000 	.word	0x48001000
 8000aa0:	20000128 	.word	0x20000128
 8000aa4:	40006400 	.word	0x40006400
 8000aa8:	20000150 	.word	0x20000150
 8000aac:	40001000 	.word	0x40001000
 8000ab0:	20000000 	.word	0x20000000
 8000ab4:	40023000 	.word	0x40023000
 8000ab8:	4628      	mov	r0, r5
 8000aba:	f000 f88b 	bl	8000bd4 <Set_CRC_Instance>
 8000abe:	4620      	mov	r0, r4
 8000ac0:	f001 fb3e 	bl	8002140 <HAL_TIM_Base_Start>
 8000ac4:	6823      	ldr	r3, [r4, #0]
 8000ac6:	625e      	str	r6, [r3, #36]	; 0x24
 8000ac8:	b1e7      	cbz	r7, 8000b04 <main+0x314>
 8000aca:	4628      	mov	r0, r5
 8000acc:	f000 f832 	bl	8000b34 <Do_Sram_Pattern_Test>
 8000ad0:	28aa      	cmp	r0, #170	; 0xaa
 8000ad2:	d117      	bne.n	8000b04 <main+0x314>
 8000ad4:	4628      	mov	r0, r5
 8000ad6:	4d13      	ldr	r5, [pc, #76]	; (8000b24 <main+0x334>)
 8000ad8:	f000 f87c 	bl	8000bd4 <Set_CRC_Instance>
 8000adc:	4628      	mov	r0, r5
 8000ade:	f000 f87f 	bl	8000be0 <Set_CRC_Start_Address>
 8000ae2:	4811      	ldr	r0, [pc, #68]	; (8000b28 <main+0x338>)
 8000ae4:	f000 f882 	bl	8000bec <Set_CRC_End_Address>
 8000ae8:	f000 f886 	bl	8000bf8 <Start_CRC_Calculation>
 8000aec:	f000 f8a6 	bl	8000c3c <Report_CRC_Result_Value>
 8000af0:	4b0e      	ldr	r3, [pc, #56]	; (8000b2c <main+0x33c>)
 8000af2:	f8d3 3ffc 	ldr.w	r3, [r3, #4092]	; 0xffc
 8000af6:	4298      	cmp	r0, r3
 8000af8:	d104      	bne.n	8000b04 <main+0x314>
 8000afa:	686b      	ldr	r3, [r5, #4]
 8000afc:	682a      	ldr	r2, [r5, #0]
 8000afe:	f382 8808 	msr	MSP, r2
 8000b02:	4798      	blx	r3
 8000b04:	4d0a      	ldr	r5, [pc, #40]	; (8000b30 <main+0x340>)
 8000b06:	2600      	movs	r6, #0
 8000b08:	6823      	ldr	r3, [r4, #0]
 8000b0a:	6a5a      	ldr	r2, [r3, #36]	; 0x24
 8000b0c:	2a63      	cmp	r2, #99	; 0x63
 8000b0e:	d9fc      	bls.n	8000b0a <main+0x31a>
 8000b10:	625e      	str	r6, [r3, #36]	; 0x24
 8000b12:	4628      	mov	r0, r5
 8000b14:	f7ff fd6c 	bl	80005f0 <CAN_RxCheckMsgPendingCallback>
 8000b18:	f7ff fe0e 	bl	8000738 <Update_Red_Led_State>
 8000b1c:	f7ff fdf4 	bl	8000708 <Update_Green_Led_State>
 8000b20:	e7f2      	b.n	8000b08 <main+0x318>
 8000b22:	bf00      	nop
 8000b24:	08008000 	.word	0x08008000
 8000b28:	0802ffff 	.word	0x0802ffff
 8000b2c:	08002000 	.word	0x08002000
 8000b30:	20000128 	.word	0x20000128

08000b34 <Do_Sram_Pattern_Test>:
 8000b34:	b57f      	push	{r0, r1, r2, r3, r4, r5, r6, lr}
 8000b36:	6802      	ldr	r2, [r0, #0]
 8000b38:	4b21      	ldr	r3, [pc, #132]	; (8000bc0 <Do_Sram_Pattern_Test+0x8c>)
 8000b3a:	4d22      	ldr	r5, [pc, #136]	; (8000bc4 <Do_Sram_Pattern_Test+0x90>)
 8000b3c:	6018      	str	r0, [r3, #0]
 8000b3e:	6893      	ldr	r3, [r2, #8]
 8000b40:	f043 0301 	orr.w	r3, r3, #1
 8000b44:	6093      	str	r3, [r2, #8]
 8000b46:	2303      	movs	r3, #3
 8000b48:	6203      	str	r3, [r0, #32]
 8000b4a:	2302      	movs	r3, #2
 8000b4c:	7743      	strb	r3, [r0, #29]
 8000b4e:	f04f 31aa 	mov.w	r1, #2863311530	; 0xaaaaaaaa
 8000b52:	4b1d      	ldr	r3, [pc, #116]	; (8000bc8 <Do_Sram_Pattern_Test+0x94>)
 8000b54:	6111      	str	r1, [r2, #16]
 8000b56:	f04f 3455 	mov.w	r4, #1431655765	; 0x55555555
 8000b5a:	681e      	ldr	r6, [r3, #0]
 8000b5c:	9600      	str	r6, [sp, #0]
 8000b5e:	685e      	ldr	r6, [r3, #4]
 8000b60:	9601      	str	r6, [sp, #4]
 8000b62:	689e      	ldr	r6, [r3, #8]
 8000b64:	9602      	str	r6, [sp, #8]
 8000b66:	e9c3 4101 	strd	r4, r1, [r3, #4]
 8000b6a:	68de      	ldr	r6, [r3, #12]
 8000b6c:	9603      	str	r6, [sp, #12]
 8000b6e:	60dc      	str	r4, [r3, #12]
 8000b70:	6011      	str	r1, [r2, #0]
 8000b72:	685e      	ldr	r6, [r3, #4]
 8000b74:	6016      	str	r6, [r2, #0]
 8000b76:	689e      	ldr	r6, [r3, #8]
 8000b78:	6016      	str	r6, [r2, #0]
 8000b7a:	68de      	ldr	r6, [r3, #12]
 8000b7c:	6016      	str	r6, [r2, #0]
 8000b7e:	e9c3 1401 	strd	r1, r4, [r3, #4]
 8000b82:	60d9      	str	r1, [r3, #12]
 8000b84:	6014      	str	r4, [r2, #0]
 8000b86:	685e      	ldr	r6, [r3, #4]
 8000b88:	6016      	str	r6, [r2, #0]
 8000b8a:	689e      	ldr	r6, [r3, #8]
 8000b8c:	6016      	str	r6, [r2, #0]
 8000b8e:	68de      	ldr	r6, [r3, #12]
 8000b90:	6016      	str	r6, [r2, #0]
 8000b92:	9e00      	ldr	r6, [sp, #0]
 8000b94:	601e      	str	r6, [r3, #0]
 8000b96:	9e01      	ldr	r6, [sp, #4]
 8000b98:	605e      	str	r6, [r3, #4]
 8000b9a:	9e02      	ldr	r6, [sp, #8]
 8000b9c:	609e      	str	r6, [r3, #8]
 8000b9e:	9e03      	ldr	r6, [sp, #12]
 8000ba0:	60de      	str	r6, [r3, #12]
 8000ba2:	3310      	adds	r3, #16
 8000ba4:	42ab      	cmp	r3, r5
 8000ba6:	d1d8      	bne.n	8000b5a <Do_Sram_Pattern_Test+0x26>
 8000ba8:	2301      	movs	r3, #1
 8000baa:	7743      	strb	r3, [r0, #29]
 8000bac:	6813      	ldr	r3, [r2, #0]
 8000bae:	4807      	ldr	r0, [pc, #28]	; (8000bcc <Do_Sram_Pattern_Test+0x98>)
 8000bb0:	4a07      	ldr	r2, [pc, #28]	; (8000bd0 <Do_Sram_Pattern_Test+0x9c>)
 8000bb2:	4283      	cmp	r3, r0
 8000bb4:	bf0c      	ite	eq
 8000bb6:	20aa      	moveq	r0, #170	; 0xaa
 8000bb8:	20ff      	movne	r0, #255	; 0xff
 8000bba:	6013      	str	r3, [r2, #0]
 8000bbc:	b004      	add	sp, #16
 8000bbe:	bd70      	pop	{r4, r5, r6, pc}
 8000bc0:	20000024 	.word	0x20000024
 8000bc4:	2000ffb0 	.word	0x2000ffb0
 8000bc8:	20000010 	.word	0x20000010
 8000bcc:	12345678 	.word	0x12345678
 8000bd0:	2000019c 	.word	0x2000019c

08000bd4 <Set_CRC_Instance>:
 8000bd4:	4b01      	ldr	r3, [pc, #4]	; (8000bdc <Set_CRC_Instance+0x8>)
 8000bd6:	6018      	str	r0, [r3, #0]
 8000bd8:	4770      	bx	lr
 8000bda:	bf00      	nop
 8000bdc:	20000024 	.word	0x20000024

08000be0 <Set_CRC_Start_Address>:
 8000be0:	4b01      	ldr	r3, [pc, #4]	; (8000be8 <Set_CRC_Start_Address+0x8>)
 8000be2:	6018      	str	r0, [r3, #0]
 8000be4:	4770      	bx	lr
 8000be6:	bf00      	nop
 8000be8:	2000002c 	.word	0x2000002c

08000bec <Set_CRC_End_Address>:
 8000bec:	4b01      	ldr	r3, [pc, #4]	; (8000bf4 <Set_CRC_End_Address+0x8>)
 8000bee:	6018      	str	r0, [r3, #0]
 8000bf0:	4770      	bx	lr
 8000bf2:	bf00      	nop
 8000bf4:	20000028 	.word	0x20000028

08000bf8 <Start_CRC_Calculation>:
 8000bf8:	b508      	push	{r3, lr}
 8000bfa:	4b06      	ldr	r3, [pc, #24]	; (8000c14 <Start_CRC_Calculation+0x1c>)
 8000bfc:	6819      	ldr	r1, [r3, #0]
 8000bfe:	4b06      	ldr	r3, [pc, #24]	; (8000c18 <Start_CRC_Calculation+0x20>)
 8000c00:	681a      	ldr	r2, [r3, #0]
 8000c02:	4b06      	ldr	r3, [pc, #24]	; (8000c1c <Start_CRC_Calculation+0x24>)
 8000c04:	1a52      	subs	r2, r2, r1
 8000c06:	6818      	ldr	r0, [r3, #0]
 8000c08:	0892      	lsrs	r2, r2, #2
 8000c0a:	f000 fbfb 	bl	8001404 <HAL_CRC_Calculate>
 8000c0e:	4b04      	ldr	r3, [pc, #16]	; (8000c20 <Start_CRC_Calculation+0x28>)
 8000c10:	6018      	str	r0, [r3, #0]
 8000c12:	bd08      	pop	{r3, pc}
 8000c14:	2000002c 	.word	0x2000002c
 8000c18:	20000028 	.word	0x20000028
 8000c1c:	20000024 	.word	0x20000024
 8000c20:	2000019c 	.word	0x2000019c

08000c24 <Report_CRC_Progress>:
 8000c24:	b508      	push	{r3, lr}
 8000c26:	4b03      	ldr	r3, [pc, #12]	; (8000c34 <Report_CRC_Progress+0x10>)
 8000c28:	6818      	ldr	r0, [r3, #0]
 8000c2a:	f000 fc0f 	bl	800144c <HAL_CRC_GetState>
 8000c2e:	4b02      	ldr	r3, [pc, #8]	; (8000c38 <Report_CRC_Progress+0x14>)
 8000c30:	7018      	strb	r0, [r3, #0]
 8000c32:	bd08      	pop	{r3, pc}
 8000c34:	20000024 	.word	0x20000024
 8000c38:	200001a0 	.word	0x200001a0

08000c3c <Report_CRC_Result_Value>:
 8000c3c:	4b01      	ldr	r3, [pc, #4]	; (8000c44 <Report_CRC_Result_Value+0x8>)
 8000c3e:	6818      	ldr	r0, [r3, #0]
 8000c40:	4770      	bx	lr
 8000c42:	bf00      	nop
 8000c44:	2000019c 	.word	0x2000019c

08000c48 <HAL_MspInit>:
 8000c48:	4b0a      	ldr	r3, [pc, #40]	; (8000c74 <HAL_MspInit+0x2c>)
 8000c4a:	6e1a      	ldr	r2, [r3, #96]	; 0x60
 8000c4c:	f042 0201 	orr.w	r2, r2, #1
 8000c50:	661a      	str	r2, [r3, #96]	; 0x60
 8000c52:	6e1a      	ldr	r2, [r3, #96]	; 0x60
 8000c54:	b082      	sub	sp, #8
 8000c56:	f002 0201 	and.w	r2, r2, #1
 8000c5a:	9200      	str	r2, [sp, #0]
 8000c5c:	9a00      	ldr	r2, [sp, #0]
 8000c5e:	6d9a      	ldr	r2, [r3, #88]	; 0x58
 8000c60:	f042 5280 	orr.w	r2, r2, #268435456	; 0x10000000
 8000c64:	659a      	str	r2, [r3, #88]	; 0x58
 8000c66:	6d9b      	ldr	r3, [r3, #88]	; 0x58
 8000c68:	f003 5380 	and.w	r3, r3, #268435456	; 0x10000000
 8000c6c:	9301      	str	r3, [sp, #4]
 8000c6e:	9b01      	ldr	r3, [sp, #4]
 8000c70:	b002      	add	sp, #8
 8000c72:	4770      	bx	lr
 8000c74:	40021000 	.word	0x40021000

08000c78 <HAL_CAN_MspInit>:
 8000c78:	b510      	push	{r4, lr}
 8000c7a:	4604      	mov	r4, r0
 8000c7c:	b088      	sub	sp, #32
 8000c7e:	2214      	movs	r2, #20
 8000c80:	2100      	movs	r1, #0
 8000c82:	a803      	add	r0, sp, #12
 8000c84:	f001 fb1e 	bl	80022c4 <memset>
 8000c88:	6822      	ldr	r2, [r4, #0]
 8000c8a:	4b13      	ldr	r3, [pc, #76]	; (8000cd8 <HAL_CAN_MspInit+0x60>)
 8000c8c:	429a      	cmp	r2, r3
 8000c8e:	d120      	bne.n	8000cd2 <HAL_CAN_MspInit+0x5a>
 8000c90:	f503 33d6 	add.w	r3, r3, #109568	; 0x1ac00
 8000c94:	2103      	movs	r1, #3
 8000c96:	6d9a      	ldr	r2, [r3, #88]	; 0x58
 8000c98:	4810      	ldr	r0, [pc, #64]	; (8000cdc <HAL_CAN_MspInit+0x64>)
 8000c9a:	f042 7200 	orr.w	r2, r2, #33554432	; 0x2000000
 8000c9e:	659a      	str	r2, [r3, #88]	; 0x58
 8000ca0:	6d9a      	ldr	r2, [r3, #88]	; 0x58
 8000ca2:	f002 7200 	and.w	r2, r2, #33554432	; 0x2000000
 8000ca6:	9201      	str	r2, [sp, #4]
 8000ca8:	9a01      	ldr	r2, [sp, #4]
 8000caa:	6cda      	ldr	r2, [r3, #76]	; 0x4c
 8000cac:	f042 0202 	orr.w	r2, r2, #2
 8000cb0:	64da      	str	r2, [r3, #76]	; 0x4c
 8000cb2:	6cdb      	ldr	r3, [r3, #76]	; 0x4c
 8000cb4:	f003 0302 	and.w	r3, r3, #2
 8000cb8:	9302      	str	r3, [sp, #8]
 8000cba:	9b02      	ldr	r3, [sp, #8]
 8000cbc:	f44f 7240 	mov.w	r2, #768	; 0x300
 8000cc0:	2302      	movs	r3, #2
 8000cc2:	e9cd 2303 	strd	r2, r3, [sp, #12]
 8000cc6:	2309      	movs	r3, #9
 8000cc8:	e9cd 1306 	strd	r1, r3, [sp, #24]
 8000ccc:	a903      	add	r1, sp, #12
 8000cce:	f000 fd57 	bl	8001780 <HAL_GPIO_Init>
 8000cd2:	b008      	add	sp, #32
 8000cd4:	bd10      	pop	{r4, pc}
 8000cd6:	bf00      	nop
 8000cd8:	40006400 	.word	0x40006400
 8000cdc:	48000400 	.word	0x48000400

08000ce0 <HAL_CRC_MspInit>:
 8000ce0:	6802      	ldr	r2, [r0, #0]
 8000ce2:	4b08      	ldr	r3, [pc, #32]	; (8000d04 <HAL_CRC_MspInit+0x24>)
 8000ce4:	429a      	cmp	r2, r3
 8000ce6:	b082      	sub	sp, #8
 8000ce8:	d10a      	bne.n	8000d00 <HAL_CRC_MspInit+0x20>
 8000cea:	f5a3 5300 	sub.w	r3, r3, #8192	; 0x2000
 8000cee:	6c9a      	ldr	r2, [r3, #72]	; 0x48
 8000cf0:	f442 5280 	orr.w	r2, r2, #4096	; 0x1000
 8000cf4:	649a      	str	r2, [r3, #72]	; 0x48
 8000cf6:	6c9b      	ldr	r3, [r3, #72]	; 0x48
 8000cf8:	f403 5380 	and.w	r3, r3, #4096	; 0x1000
 8000cfc:	9301      	str	r3, [sp, #4]
 8000cfe:	9b01      	ldr	r3, [sp, #4]
 8000d00:	b002      	add	sp, #8
 8000d02:	4770      	bx	lr
 8000d04:	40023000 	.word	0x40023000

08000d08 <HAL_TIM_Base_MspInit>:
 8000d08:	6802      	ldr	r2, [r0, #0]
 8000d0a:	4b08      	ldr	r3, [pc, #32]	; (8000d2c <HAL_TIM_Base_MspInit+0x24>)
 8000d0c:	429a      	cmp	r2, r3
 8000d0e:	b082      	sub	sp, #8
 8000d10:	d10a      	bne.n	8000d28 <HAL_TIM_Base_MspInit+0x20>
 8000d12:	f503 3300 	add.w	r3, r3, #131072	; 0x20000
 8000d16:	6d9a      	ldr	r2, [r3, #88]	; 0x58
 8000d18:	f042 0210 	orr.w	r2, r2, #16
 8000d1c:	659a      	str	r2, [r3, #88]	; 0x58
 8000d1e:	6d9b      	ldr	r3, [r3, #88]	; 0x58
 8000d20:	f003 0310 	and.w	r3, r3, #16
 8000d24:	9301      	str	r3, [sp, #4]
 8000d26:	9b01      	ldr	r3, [sp, #4]
 8000d28:	b002      	add	sp, #8
 8000d2a:	4770      	bx	lr
 8000d2c:	40001000 	.word	0x40001000

08000d30 <NMI_Handler>:
 8000d30:	e7fe      	b.n	8000d30 <NMI_Handler>

08000d32 <HardFault_Handler>:
 8000d32:	e7fe      	b.n	8000d32 <HardFault_Handler>

08000d34 <MemManage_Handler>:
 8000d34:	e7fe      	b.n	8000d34 <MemManage_Handler>

08000d36 <BusFault_Handler>:
 8000d36:	e7fe      	b.n	8000d36 <BusFault_Handler>

08000d38 <UsageFault_Handler>:
 8000d38:	e7fe      	b.n	8000d38 <UsageFault_Handler>

08000d3a <SVC_Handler>:
 8000d3a:	4770      	bx	lr

08000d3c <DebugMon_Handler>:
 8000d3c:	4770      	bx	lr

08000d3e <PendSV_Handler>:
 8000d3e:	4770      	bx	lr

08000d40 <SysTick_Handler>:
 8000d40:	f000 b86a 	b.w	8000e18 <HAL_IncTick>

08000d44 <SystemInit>:
 8000d44:	4a03      	ldr	r2, [pc, #12]	; (8000d54 <SystemInit+0x10>)
 8000d46:	f8d2 3088 	ldr.w	r3, [r2, #136]	; 0x88
 8000d4a:	f443 0370 	orr.w	r3, r3, #15728640	; 0xf00000
 8000d4e:	f8c2 3088 	str.w	r3, [r2, #136]	; 0x88
 8000d52:	4770      	bx	lr
 8000d54:	e000ed00 	.word	0xe000ed00

08000d58 <Reset_Handler>:
 8000d58:	f8df d034 	ldr.w	sp, [pc, #52]	; 8000d90 <LoopForever+0x2>
 8000d5c:	f7ff fff2 	bl	8000d44 <SystemInit>
 8000d60:	480c      	ldr	r0, [pc, #48]	; (8000d94 <LoopForever+0x6>)
 8000d62:	490d      	ldr	r1, [pc, #52]	; (8000d98 <LoopForever+0xa>)
 8000d64:	4a0d      	ldr	r2, [pc, #52]	; (8000d9c <LoopForever+0xe>)
 8000d66:	2300      	movs	r3, #0
 8000d68:	e002      	b.n	8000d70 <LoopCopyDataInit>

08000d6a <CopyDataInit>:
 8000d6a:	58d4      	ldr	r4, [r2, r3]
 8000d6c:	50c4      	str	r4, [r0, r3]
 8000d6e:	3304      	adds	r3, #4

08000d70 <LoopCopyDataInit>:
 8000d70:	18c4      	adds	r4, r0, r3
 8000d72:	428c      	cmp	r4, r1
 8000d74:	d3f9      	bcc.n	8000d6a <CopyDataInit>
 8000d76:	4a0a      	ldr	r2, [pc, #40]	; (8000da0 <LoopForever+0x12>)
 8000d78:	4c0a      	ldr	r4, [pc, #40]	; (8000da4 <LoopForever+0x16>)
 8000d7a:	2300      	movs	r3, #0
 8000d7c:	e001      	b.n	8000d82 <LoopFillZerobss>

08000d7e <FillZerobss>:
 8000d7e:	6013      	str	r3, [r2, #0]
 8000d80:	3204      	adds	r2, #4

08000d82 <LoopFillZerobss>:
 8000d82:	42a2      	cmp	r2, r4
 8000d84:	d3fb      	bcc.n	8000d7e <FillZerobss>
 8000d86:	f001 faa5 	bl	80022d4 <__libc_init_array>
 8000d8a:	f7ff fd31 	bl	80007f0 <main>

08000d8e <LoopForever>:
 8000d8e:	e7fe      	b.n	8000d8e <LoopForever>
 8000d90:	20010000 	.word	0x20010000
 8000d94:	20000000 	.word	0x20000000
 8000d98:	2000005c 	.word	0x2000005c
 8000d9c:	08002384 	.word	0x08002384
 8000da0:	20000060 	.word	0x20000060
 8000da4:	200001a8 	.word	0x200001a8

08000da8 <ADC1_IRQHandler>:
 8000da8:	e7fe      	b.n	8000da8 <ADC1_IRQHandler>
	...

08000dac <HAL_InitTick>:
 8000dac:	b538      	push	{r3, r4, r5, lr}
 8000dae:	4b0f      	ldr	r3, [pc, #60]	; (8000dec <HAL_InitTick+0x40>)
 8000db0:	781a      	ldrb	r2, [r3, #0]
 8000db2:	4605      	mov	r5, r0
 8000db4:	b90a      	cbnz	r2, 8000dba <HAL_InitTick+0xe>
 8000db6:	2001      	movs	r0, #1
 8000db8:	bd38      	pop	{r3, r4, r5, pc}
 8000dba:	f44f 737a 	mov.w	r3, #1000	; 0x3e8
 8000dbe:	fbb3 f3f2 	udiv	r3, r3, r2
 8000dc2:	4a0b      	ldr	r2, [pc, #44]	; (8000df0 <HAL_InitTick+0x44>)
 8000dc4:	6810      	ldr	r0, [r2, #0]
 8000dc6:	fbb0 f0f3 	udiv	r0, r0, r3
 8000dca:	f000 fa7d 	bl	80012c8 <HAL_SYSTICK_Config>
 8000dce:	4604      	mov	r4, r0
 8000dd0:	2800      	cmp	r0, #0
 8000dd2:	d1f0      	bne.n	8000db6 <HAL_InitTick+0xa>
 8000dd4:	2d0f      	cmp	r5, #15
 8000dd6:	d8ee      	bhi.n	8000db6 <HAL_InitTick+0xa>
 8000dd8:	4602      	mov	r2, r0
 8000dda:	4629      	mov	r1, r5
 8000ddc:	f04f 30ff 	mov.w	r0, #4294967295
 8000de0:	f000 fa40 	bl	8001264 <HAL_NVIC_SetPriority>
 8000de4:	4b03      	ldr	r3, [pc, #12]	; (8000df4 <HAL_InitTick+0x48>)
 8000de6:	4620      	mov	r0, r4
 8000de8:	601d      	str	r5, [r3, #0]
 8000dea:	e7e5      	b.n	8000db8 <HAL_InitTick+0xc>
 8000dec:	20000034 	.word	0x20000034
 8000df0:	20000030 	.word	0x20000030
 8000df4:	20000038 	.word	0x20000038

08000df8 <HAL_Init>:
 8000df8:	b510      	push	{r4, lr}
 8000dfa:	2003      	movs	r0, #3
 8000dfc:	f000 fa20 	bl	8001240 <HAL_NVIC_SetPriorityGrouping>
 8000e00:	200f      	movs	r0, #15
 8000e02:	f7ff ffd3 	bl	8000dac <HAL_InitTick>
 8000e06:	4604      	mov	r4, r0
 8000e08:	b918      	cbnz	r0, 8000e12 <HAL_Init+0x1a>
 8000e0a:	f7ff ff1d 	bl	8000c48 <HAL_MspInit>
 8000e0e:	4620      	mov	r0, r4
 8000e10:	bd10      	pop	{r4, pc}
 8000e12:	2401      	movs	r4, #1
 8000e14:	e7fb      	b.n	8000e0e <HAL_Init+0x16>
	...

08000e18 <HAL_IncTick>:
 8000e18:	4a03      	ldr	r2, [pc, #12]	; (8000e28 <HAL_IncTick+0x10>)
 8000e1a:	4b04      	ldr	r3, [pc, #16]	; (8000e2c <HAL_IncTick+0x14>)
 8000e1c:	6811      	ldr	r1, [r2, #0]
 8000e1e:	781b      	ldrb	r3, [r3, #0]
 8000e20:	440b      	add	r3, r1
 8000e22:	6013      	str	r3, [r2, #0]
 8000e24:	4770      	bx	lr
 8000e26:	bf00      	nop
 8000e28:	200001a4 	.word	0x200001a4
 8000e2c:	20000034 	.word	0x20000034

08000e30 <HAL_GetTick>:
 8000e30:	4b01      	ldr	r3, [pc, #4]	; (8000e38 <HAL_GetTick+0x8>)
 8000e32:	6818      	ldr	r0, [r3, #0]
 8000e34:	4770      	bx	lr
 8000e36:	bf00      	nop
 8000e38:	200001a4 	.word	0x200001a4

08000e3c <HAL_CAN_Init>:
 8000e3c:	b538      	push	{r3, r4, r5, lr}
 8000e3e:	4604      	mov	r4, r0
 8000e40:	2800      	cmp	r0, #0
 8000e42:	d06e      	beq.n	8000f22 <HAL_CAN_Init+0xe6>
 8000e44:	f890 3020 	ldrb.w	r3, [r0, #32]
 8000e48:	b90b      	cbnz	r3, 8000e4e <HAL_CAN_Init+0x12>
 8000e4a:	f7ff ff15 	bl	8000c78 <HAL_CAN_MspInit>
 8000e4e:	6822      	ldr	r2, [r4, #0]
 8000e50:	6813      	ldr	r3, [r2, #0]
 8000e52:	f043 0301 	orr.w	r3, r3, #1
 8000e56:	6013      	str	r3, [r2, #0]
 8000e58:	f7ff ffea 	bl	8000e30 <HAL_GetTick>
 8000e5c:	4605      	mov	r5, r0
 8000e5e:	6823      	ldr	r3, [r4, #0]
 8000e60:	685a      	ldr	r2, [r3, #4]
 8000e62:	07d1      	lsls	r1, r2, #31
 8000e64:	d551      	bpl.n	8000f0a <HAL_CAN_Init+0xce>
 8000e66:	681a      	ldr	r2, [r3, #0]
 8000e68:	f022 0202 	bic.w	r2, r2, #2
 8000e6c:	601a      	str	r2, [r3, #0]
 8000e6e:	f7ff ffdf 	bl	8000e30 <HAL_GetTick>
 8000e72:	4605      	mov	r5, r0
 8000e74:	6823      	ldr	r3, [r4, #0]
 8000e76:	685a      	ldr	r2, [r3, #4]
 8000e78:	0792      	lsls	r2, r2, #30
 8000e7a:	d454      	bmi.n	8000f26 <HAL_CAN_Init+0xea>
 8000e7c:	7e22      	ldrb	r2, [r4, #24]
 8000e7e:	2a01      	cmp	r2, #1
 8000e80:	681a      	ldr	r2, [r3, #0]
 8000e82:	bf0c      	ite	eq
 8000e84:	f042 0280 	orreq.w	r2, r2, #128	; 0x80
 8000e88:	f022 0280 	bicne.w	r2, r2, #128	; 0x80
 8000e8c:	601a      	str	r2, [r3, #0]
 8000e8e:	7e62      	ldrb	r2, [r4, #25]
 8000e90:	2a01      	cmp	r2, #1
 8000e92:	681a      	ldr	r2, [r3, #0]
 8000e94:	bf0c      	ite	eq
 8000e96:	f042 0240 	orreq.w	r2, r2, #64	; 0x40
 8000e9a:	f022 0240 	bicne.w	r2, r2, #64	; 0x40
 8000e9e:	601a      	str	r2, [r3, #0]
 8000ea0:	7ea2      	ldrb	r2, [r4, #26]
 8000ea2:	2a01      	cmp	r2, #1
 8000ea4:	681a      	ldr	r2, [r3, #0]
 8000ea6:	bf0c      	ite	eq
 8000ea8:	f042 0220 	orreq.w	r2, r2, #32
 8000eac:	f022 0220 	bicne.w	r2, r2, #32
 8000eb0:	601a      	str	r2, [r3, #0]
 8000eb2:	7ee2      	ldrb	r2, [r4, #27]
 8000eb4:	2a01      	cmp	r2, #1
 8000eb6:	681a      	ldr	r2, [r3, #0]
 8000eb8:	bf0c      	ite	eq
 8000eba:	f022 0210 	biceq.w	r2, r2, #16
 8000ebe:	f042 0210 	orrne.w	r2, r2, #16
 8000ec2:	601a      	str	r2, [r3, #0]
 8000ec4:	7f22      	ldrb	r2, [r4, #28]
 8000ec6:	2a01      	cmp	r2, #1
 8000ec8:	681a      	ldr	r2, [r3, #0]
 8000eca:	bf0c      	ite	eq
 8000ecc:	f042 0208 	orreq.w	r2, r2, #8
 8000ed0:	f022 0208 	bicne.w	r2, r2, #8
 8000ed4:	601a      	str	r2, [r3, #0]
 8000ed6:	7f62      	ldrb	r2, [r4, #29]
 8000ed8:	2a01      	cmp	r2, #1
 8000eda:	681a      	ldr	r2, [r3, #0]
 8000edc:	bf0c      	ite	eq
 8000ede:	f042 0204 	orreq.w	r2, r2, #4
 8000ee2:	f022 0204 	bicne.w	r2, r2, #4
 8000ee6:	601a      	str	r2, [r3, #0]
 8000ee8:	e9d4 2102 	ldrd	r2, r1, [r4, #8]
 8000eec:	430a      	orrs	r2, r1
 8000eee:	6921      	ldr	r1, [r4, #16]
 8000ef0:	430a      	orrs	r2, r1
 8000ef2:	6961      	ldr	r1, [r4, #20]
 8000ef4:	430a      	orrs	r2, r1
 8000ef6:	6861      	ldr	r1, [r4, #4]
 8000ef8:	3901      	subs	r1, #1
 8000efa:	430a      	orrs	r2, r1
 8000efc:	61da      	str	r2, [r3, #28]
 8000efe:	2000      	movs	r0, #0
 8000f00:	2301      	movs	r3, #1
 8000f02:	6260      	str	r0, [r4, #36]	; 0x24
 8000f04:	f884 3020 	strb.w	r3, [r4, #32]
 8000f08:	bd38      	pop	{r3, r4, r5, pc}
 8000f0a:	f7ff ff91 	bl	8000e30 <HAL_GetTick>
 8000f0e:	1b40      	subs	r0, r0, r5
 8000f10:	280a      	cmp	r0, #10
 8000f12:	d9a4      	bls.n	8000e5e <HAL_CAN_Init+0x22>
 8000f14:	6a63      	ldr	r3, [r4, #36]	; 0x24
 8000f16:	f443 3300 	orr.w	r3, r3, #131072	; 0x20000
 8000f1a:	6263      	str	r3, [r4, #36]	; 0x24
 8000f1c:	2305      	movs	r3, #5
 8000f1e:	f884 3020 	strb.w	r3, [r4, #32]
 8000f22:	2001      	movs	r0, #1
 8000f24:	e7f0      	b.n	8000f08 <HAL_CAN_Init+0xcc>
 8000f26:	f7ff ff83 	bl	8000e30 <HAL_GetTick>
 8000f2a:	1b40      	subs	r0, r0, r5
 8000f2c:	280a      	cmp	r0, #10
 8000f2e:	d9a1      	bls.n	8000e74 <HAL_CAN_Init+0x38>
 8000f30:	e7f0      	b.n	8000f14 <HAL_CAN_Init+0xd8>

08000f32 <HAL_CAN_ConfigFilter>:
 8000f32:	b570      	push	{r4, r5, r6, lr}
 8000f34:	f890 2020 	ldrb.w	r2, [r0, #32]
 8000f38:	6803      	ldr	r3, [r0, #0]
 8000f3a:	3a01      	subs	r2, #1
 8000f3c:	2a01      	cmp	r2, #1
 8000f3e:	d860      	bhi.n	8001002 <HAL_CAN_ConfigFilter+0xd0>
 8000f40:	f8d3 2200 	ldr.w	r2, [r3, #512]	; 0x200
 8000f44:	f042 0201 	orr.w	r2, r2, #1
 8000f48:	f8c3 2200 	str.w	r2, [r3, #512]	; 0x200
 8000f4c:	694a      	ldr	r2, [r1, #20]
 8000f4e:	f8d3 521c 	ldr.w	r5, [r3, #540]	; 0x21c
 8000f52:	f002 041f 	and.w	r4, r2, #31
 8000f56:	2001      	movs	r0, #1
 8000f58:	40a0      	lsls	r0, r4
 8000f5a:	ea25 0500 	bic.w	r5, r5, r0
 8000f5e:	f8c3 521c 	str.w	r5, [r3, #540]	; 0x21c
 8000f62:	69cd      	ldr	r5, [r1, #28]
 8000f64:	43c4      	mvns	r4, r0
 8000f66:	bb85      	cbnz	r5, 8000fca <HAL_CAN_ConfigFilter+0x98>
 8000f68:	f8d3 520c 	ldr.w	r5, [r3, #524]	; 0x20c
 8000f6c:	68ce      	ldr	r6, [r1, #12]
 8000f6e:	4025      	ands	r5, r4
 8000f70:	f8c3 520c 	str.w	r5, [r3, #524]	; 0x20c
 8000f74:	888d      	ldrh	r5, [r1, #4]
 8000f76:	eb03 02c2 	add.w	r2, r3, r2, lsl #3
 8000f7a:	ea45 4506 	orr.w	r5, r5, r6, lsl #16
 8000f7e:	f8c2 5240 	str.w	r5, [r2, #576]	; 0x240
 8000f82:	688e      	ldr	r6, [r1, #8]
 8000f84:	880d      	ldrh	r5, [r1, #0]
 8000f86:	ea45 4506 	orr.w	r5, r5, r6, lsl #16
 8000f8a:	f8c2 5244 	str.w	r5, [r2, #580]	; 0x244
 8000f8e:	698a      	ldr	r2, [r1, #24]
 8000f90:	bb6a      	cbnz	r2, 8000fee <HAL_CAN_ConfigFilter+0xbc>
 8000f92:	f8d3 2204 	ldr.w	r2, [r3, #516]	; 0x204
 8000f96:	4022      	ands	r2, r4
 8000f98:	f8c3 2204 	str.w	r2, [r3, #516]	; 0x204
 8000f9c:	690a      	ldr	r2, [r1, #16]
 8000f9e:	bb52      	cbnz	r2, 8000ff6 <HAL_CAN_ConfigFilter+0xc4>
 8000fa0:	f8d3 2214 	ldr.w	r2, [r3, #532]	; 0x214
 8000fa4:	4014      	ands	r4, r2
 8000fa6:	f8c3 4214 	str.w	r4, [r3, #532]	; 0x214
 8000faa:	6a0a      	ldr	r2, [r1, #32]
 8000fac:	2a01      	cmp	r2, #1
 8000fae:	bf02      	ittt	eq
 8000fb0:	f8d3 221c 	ldreq.w	r2, [r3, #540]	; 0x21c
 8000fb4:	4302      	orreq	r2, r0
 8000fb6:	f8c3 221c 	streq.w	r2, [r3, #540]	; 0x21c
 8000fba:	f8d3 2200 	ldr.w	r2, [r3, #512]	; 0x200
 8000fbe:	f022 0201 	bic.w	r2, r2, #1
 8000fc2:	f8c3 2200 	str.w	r2, [r3, #512]	; 0x200
 8000fc6:	2000      	movs	r0, #0
 8000fc8:	bd70      	pop	{r4, r5, r6, pc}
 8000fca:	2d01      	cmp	r5, #1
 8000fcc:	d1df      	bne.n	8000f8e <HAL_CAN_ConfigFilter+0x5c>
 8000fce:	f8d3 520c 	ldr.w	r5, [r3, #524]	; 0x20c
 8000fd2:	680e      	ldr	r6, [r1, #0]
 8000fd4:	4305      	orrs	r5, r0
 8000fd6:	f8c3 520c 	str.w	r5, [r3, #524]	; 0x20c
 8000fda:	888d      	ldrh	r5, [r1, #4]
 8000fdc:	eb03 02c2 	add.w	r2, r3, r2, lsl #3
 8000fe0:	ea45 4506 	orr.w	r5, r5, r6, lsl #16
 8000fe4:	f8c2 5240 	str.w	r5, [r2, #576]	; 0x240
 8000fe8:	688e      	ldr	r6, [r1, #8]
 8000fea:	898d      	ldrh	r5, [r1, #12]
 8000fec:	e7cb      	b.n	8000f86 <HAL_CAN_ConfigFilter+0x54>
 8000fee:	f8d3 2204 	ldr.w	r2, [r3, #516]	; 0x204
 8000ff2:	4302      	orrs	r2, r0
 8000ff4:	e7d0      	b.n	8000f98 <HAL_CAN_ConfigFilter+0x66>
 8000ff6:	f8d3 2214 	ldr.w	r2, [r3, #532]	; 0x214
 8000ffa:	4302      	orrs	r2, r0
 8000ffc:	f8c3 2214 	str.w	r2, [r3, #532]	; 0x214
 8001000:	e7d3      	b.n	8000faa <HAL_CAN_ConfigFilter+0x78>
 8001002:	6a43      	ldr	r3, [r0, #36]	; 0x24
 8001004:	f443 2380 	orr.w	r3, r3, #262144	; 0x40000
 8001008:	6243      	str	r3, [r0, #36]	; 0x24
 800100a:	2001      	movs	r0, #1
 800100c:	e7dc      	b.n	8000fc8 <HAL_CAN_ConfigFilter+0x96>

0800100e <HAL_CAN_Start>:
 800100e:	b570      	push	{r4, r5, r6, lr}
 8001010:	f890 3020 	ldrb.w	r3, [r0, #32]
 8001014:	2b01      	cmp	r3, #1
 8001016:	4604      	mov	r4, r0
 8001018:	b2dd      	uxtb	r5, r3
 800101a:	d120      	bne.n	800105e <HAL_CAN_Start+0x50>
 800101c:	6802      	ldr	r2, [r0, #0]
 800101e:	2302      	movs	r3, #2
 8001020:	f880 3020 	strb.w	r3, [r0, #32]
 8001024:	6813      	ldr	r3, [r2, #0]
 8001026:	f023 0301 	bic.w	r3, r3, #1
 800102a:	6013      	str	r3, [r2, #0]
 800102c:	f7ff ff00 	bl	8000e30 <HAL_GetTick>
 8001030:	4606      	mov	r6, r0
 8001032:	6823      	ldr	r3, [r4, #0]
 8001034:	685b      	ldr	r3, [r3, #4]
 8001036:	f013 0301 	ands.w	r3, r3, #1
 800103a:	d102      	bne.n	8001042 <HAL_CAN_Start+0x34>
 800103c:	6263      	str	r3, [r4, #36]	; 0x24
 800103e:	461d      	mov	r5, r3
 8001040:	e00b      	b.n	800105a <HAL_CAN_Start+0x4c>
 8001042:	f7ff fef5 	bl	8000e30 <HAL_GetTick>
 8001046:	1b80      	subs	r0, r0, r6
 8001048:	280a      	cmp	r0, #10
 800104a:	d9f2      	bls.n	8001032 <HAL_CAN_Start+0x24>
 800104c:	6a63      	ldr	r3, [r4, #36]	; 0x24
 800104e:	f443 3300 	orr.w	r3, r3, #131072	; 0x20000
 8001052:	6263      	str	r3, [r4, #36]	; 0x24
 8001054:	2305      	movs	r3, #5
 8001056:	f884 3020 	strb.w	r3, [r4, #32]
 800105a:	4628      	mov	r0, r5
 800105c:	bd70      	pop	{r4, r5, r6, pc}
 800105e:	6a43      	ldr	r3, [r0, #36]	; 0x24
 8001060:	f443 2300 	orr.w	r3, r3, #524288	; 0x80000
 8001064:	6243      	str	r3, [r0, #36]	; 0x24
 8001066:	2501      	movs	r5, #1
 8001068:	e7f7      	b.n	800105a <HAL_CAN_Start+0x4c>

0800106a <HAL_CAN_AddTxMessage>:
 800106a:	b5f0      	push	{r4, r5, r6, r7, lr}
 800106c:	f890 5020 	ldrb.w	r5, [r0, #32]
 8001070:	6806      	ldr	r6, [r0, #0]
 8001072:	3d01      	subs	r5, #1
 8001074:	2d01      	cmp	r5, #1
 8001076:	68b4      	ldr	r4, [r6, #8]
 8001078:	d83f      	bhi.n	80010fa <HAL_CAN_AddTxMessage+0x90>
 800107a:	f014 5fe0 	tst.w	r4, #469762048	; 0x1c000000
 800107e:	f04f 0501 	mov.w	r5, #1
 8001082:	d034      	beq.n	80010ee <HAL_CAN_AddTxMessage+0x84>
 8001084:	f3c4 6401 	ubfx	r4, r4, #24, #2
 8001088:	40a5      	lsls	r5, r4
 800108a:	601d      	str	r5, [r3, #0]
 800108c:	e9d1 0702 	ldrd	r0, r7, [r1, #8]
 8001090:	f104 0318 	add.w	r3, r4, #24
 8001094:	bb20      	cbnz	r0, 80010e0 <HAL_CAN_AddTxMessage+0x76>
 8001096:	6808      	ldr	r0, [r1, #0]
 8001098:	011b      	lsls	r3, r3, #4
 800109a:	ea47 5740 	orr.w	r7, r7, r0, lsl #21
 800109e:	50f7      	str	r7, [r6, r3]
 80010a0:	eb06 1304 	add.w	r3, r6, r4, lsl #4
 80010a4:	690d      	ldr	r5, [r1, #16]
 80010a6:	f8c3 5184 	str.w	r5, [r3, #388]	; 0x184
 80010aa:	7d09      	ldrb	r1, [r1, #20]
 80010ac:	2901      	cmp	r1, #1
 80010ae:	bf08      	it	eq
 80010b0:	f8d3 1184 	ldreq.w	r1, [r3, #388]	; 0x184
 80010b4:	ea4f 1004 	mov.w	r0, r4, lsl #4
 80010b8:	bf04      	itt	eq
 80010ba:	f441 7180 	orreq.w	r1, r1, #256	; 0x100
 80010be:	f8c3 1184 	streq.w	r1, [r3, #388]	; 0x184
 80010c2:	4406      	add	r6, r0
 80010c4:	6851      	ldr	r1, [r2, #4]
 80010c6:	f8c6 118c 	str.w	r1, [r6, #396]	; 0x18c
 80010ca:	6812      	ldr	r2, [r2, #0]
 80010cc:	f8c6 2188 	str.w	r2, [r6, #392]	; 0x188
 80010d0:	f8d3 2180 	ldr.w	r2, [r3, #384]	; 0x180
 80010d4:	f042 0201 	orr.w	r2, r2, #1
 80010d8:	f8c3 2180 	str.w	r2, [r3, #384]	; 0x180
 80010dc:	2000      	movs	r0, #0
 80010de:	bdf0      	pop	{r4, r5, r6, r7, pc}
 80010e0:	684d      	ldr	r5, [r1, #4]
 80010e2:	4338      	orrs	r0, r7
 80010e4:	011b      	lsls	r3, r3, #4
 80010e6:	ea40 00c5 	orr.w	r0, r0, r5, lsl #3
 80010ea:	50f0      	str	r0, [r6, r3]
 80010ec:	e7d8      	b.n	80010a0 <HAL_CAN_AddTxMessage+0x36>
 80010ee:	6a43      	ldr	r3, [r0, #36]	; 0x24
 80010f0:	f443 1300 	orr.w	r3, r3, #2097152	; 0x200000
 80010f4:	6243      	str	r3, [r0, #36]	; 0x24
 80010f6:	2001      	movs	r0, #1
 80010f8:	e7f1      	b.n	80010de <HAL_CAN_AddTxMessage+0x74>
 80010fa:	6a43      	ldr	r3, [r0, #36]	; 0x24
 80010fc:	f443 2380 	orr.w	r3, r3, #262144	; 0x40000
 8001100:	e7f8      	b.n	80010f4 <HAL_CAN_AddTxMessage+0x8a>

08001102 <HAL_CAN_GetTxMailboxesFreeLevel>:
 8001102:	f890 3020 	ldrb.w	r3, [r0, #32]
 8001106:	3b01      	subs	r3, #1
 8001108:	2b01      	cmp	r3, #1
 800110a:	d80c      	bhi.n	8001126 <HAL_CAN_GetTxMailboxesFreeLevel+0x24>
 800110c:	6803      	ldr	r3, [r0, #0]
 800110e:	6898      	ldr	r0, [r3, #8]
 8001110:	689a      	ldr	r2, [r3, #8]
 8001112:	689b      	ldr	r3, [r3, #8]
 8001114:	0112      	lsls	r2, r2, #4
 8001116:	f3c0 6080 	ubfx	r0, r0, #26, #1
 800111a:	bf48      	it	mi
 800111c:	3001      	addmi	r0, #1
 800111e:	00db      	lsls	r3, r3, #3
 8001120:	d502      	bpl.n	8001128 <HAL_CAN_GetTxMailboxesFreeLevel+0x26>
 8001122:	3001      	adds	r0, #1
 8001124:	4770      	bx	lr
 8001126:	2000      	movs	r0, #0
 8001128:	4770      	bx	lr

0800112a <HAL_CAN_GetRxMessage>:
 800112a:	b5f0      	push	{r4, r5, r6, r7, lr}
 800112c:	f890 4020 	ldrb.w	r4, [r0, #32]
 8001130:	3c01      	subs	r4, #1
 8001132:	2c01      	cmp	r4, #1
 8001134:	d871      	bhi.n	800121a <HAL_CAN_GetRxMessage+0xf0>
 8001136:	6806      	ldr	r6, [r0, #0]
 8001138:	b941      	cbnz	r1, 800114c <HAL_CAN_GetRxMessage+0x22>
 800113a:	68f4      	ldr	r4, [r6, #12]
 800113c:	07a4      	lsls	r4, r4, #30
 800113e:	d107      	bne.n	8001150 <HAL_CAN_GetRxMessage+0x26>
 8001140:	6a43      	ldr	r3, [r0, #36]	; 0x24
 8001142:	f443 1300 	orr.w	r3, r3, #2097152	; 0x200000
 8001146:	6243      	str	r3, [r0, #36]	; 0x24
 8001148:	2001      	movs	r0, #1
 800114a:	e05b      	b.n	8001204 <HAL_CAN_GetRxMessage+0xda>
 800114c:	6934      	ldr	r4, [r6, #16]
 800114e:	e7f5      	b.n	800113c <HAL_CAN_GetRxMessage+0x12>
 8001150:	eb06 1501 	add.w	r5, r6, r1, lsl #4
 8001154:	010c      	lsls	r4, r1, #4
 8001156:	f8d5 71b0 	ldr.w	r7, [r5, #432]	; 0x1b0
 800115a:	f007 0704 	and.w	r7, r7, #4
 800115e:	6097      	str	r7, [r2, #8]
 8001160:	2f00      	cmp	r7, #0
 8001162:	d150      	bne.n	8001206 <HAL_CAN_GetRxMessage+0xdc>
 8001164:	f8d5 71b0 	ldr.w	r7, [r5, #432]	; 0x1b0
 8001168:	0d7f      	lsrs	r7, r7, #21
 800116a:	6017      	str	r7, [r2, #0]
 800116c:	f8d5 71b0 	ldr.w	r7, [r5, #432]	; 0x1b0
 8001170:	f007 0702 	and.w	r7, r7, #2
 8001174:	60d7      	str	r7, [r2, #12]
 8001176:	f8d5 71b4 	ldr.w	r7, [r5, #436]	; 0x1b4
 800117a:	073f      	lsls	r7, r7, #28
 800117c:	bf56      	itet	pl
 800117e:	f8d5 71b4 	ldrpl.w	r7, [r5, #436]	; 0x1b4
 8001182:	2708      	movmi	r7, #8
 8001184:	f007 070f 	andpl.w	r7, r7, #15
 8001188:	6117      	str	r7, [r2, #16]
 800118a:	f8d5 71b4 	ldr.w	r7, [r5, #436]	; 0x1b4
 800118e:	f8d5 51b4 	ldr.w	r5, [r5, #436]	; 0x1b4
 8001192:	4426      	add	r6, r4
 8001194:	f3c7 2707 	ubfx	r7, r7, #8, #8
 8001198:	0c2d      	lsrs	r5, r5, #16
 800119a:	6197      	str	r7, [r2, #24]
 800119c:	6155      	str	r5, [r2, #20]
 800119e:	f8d6 21b8 	ldr.w	r2, [r6, #440]	; 0x1b8
 80011a2:	701a      	strb	r2, [r3, #0]
 80011a4:	6802      	ldr	r2, [r0, #0]
 80011a6:	4422      	add	r2, r4
 80011a8:	f8d2 21b8 	ldr.w	r2, [r2, #440]	; 0x1b8
 80011ac:	0a12      	lsrs	r2, r2, #8
 80011ae:	705a      	strb	r2, [r3, #1]
 80011b0:	6802      	ldr	r2, [r0, #0]
 80011b2:	4422      	add	r2, r4
 80011b4:	f8d2 21b8 	ldr.w	r2, [r2, #440]	; 0x1b8
 80011b8:	0c12      	lsrs	r2, r2, #16
 80011ba:	709a      	strb	r2, [r3, #2]
 80011bc:	6802      	ldr	r2, [r0, #0]
 80011be:	4422      	add	r2, r4
 80011c0:	f8d2 21b8 	ldr.w	r2, [r2, #440]	; 0x1b8
 80011c4:	0e12      	lsrs	r2, r2, #24
 80011c6:	70da      	strb	r2, [r3, #3]
 80011c8:	6802      	ldr	r2, [r0, #0]
 80011ca:	4422      	add	r2, r4
 80011cc:	f8d2 21bc 	ldr.w	r2, [r2, #444]	; 0x1bc
 80011d0:	711a      	strb	r2, [r3, #4]
 80011d2:	6802      	ldr	r2, [r0, #0]
 80011d4:	4422      	add	r2, r4
 80011d6:	f8d2 21bc 	ldr.w	r2, [r2, #444]	; 0x1bc
 80011da:	0a12      	lsrs	r2, r2, #8
 80011dc:	715a      	strb	r2, [r3, #5]
 80011de:	6802      	ldr	r2, [r0, #0]
 80011e0:	4422      	add	r2, r4
 80011e2:	f8d2 21bc 	ldr.w	r2, [r2, #444]	; 0x1bc
 80011e6:	0c12      	lsrs	r2, r2, #16
 80011e8:	719a      	strb	r2, [r3, #6]
 80011ea:	6802      	ldr	r2, [r0, #0]
 80011ec:	4422      	add	r2, r4
 80011ee:	f8d2 21bc 	ldr.w	r2, [r2, #444]	; 0x1bc
 80011f2:	0e12      	lsrs	r2, r2, #24
 80011f4:	71da      	strb	r2, [r3, #7]
 80011f6:	6803      	ldr	r3, [r0, #0]
 80011f8:	b951      	cbnz	r1, 8001210 <HAL_CAN_GetRxMessage+0xe6>
 80011fa:	68da      	ldr	r2, [r3, #12]
 80011fc:	f042 0220 	orr.w	r2, r2, #32
 8001200:	60da      	str	r2, [r3, #12]
 8001202:	2000      	movs	r0, #0
 8001204:	bdf0      	pop	{r4, r5, r6, r7, pc}
 8001206:	f8d5 71b0 	ldr.w	r7, [r5, #432]	; 0x1b0
 800120a:	08ff      	lsrs	r7, r7, #3
 800120c:	6057      	str	r7, [r2, #4]
 800120e:	e7ad      	b.n	800116c <HAL_CAN_GetRxMessage+0x42>
 8001210:	691a      	ldr	r2, [r3, #16]
 8001212:	f042 0220 	orr.w	r2, r2, #32
 8001216:	611a      	str	r2, [r3, #16]
 8001218:	e7f3      	b.n	8001202 <HAL_CAN_GetRxMessage+0xd8>
 800121a:	6a43      	ldr	r3, [r0, #36]	; 0x24
 800121c:	f443 2380 	orr.w	r3, r3, #262144	; 0x40000
 8001220:	e791      	b.n	8001146 <HAL_CAN_GetRxMessage+0x1c>

08001222 <HAL_CAN_GetRxFifoFillLevel>:
 8001222:	f890 3020 	ldrb.w	r3, [r0, #32]
 8001226:	3b01      	subs	r3, #1
 8001228:	2b01      	cmp	r3, #1
 800122a:	d807      	bhi.n	800123c <HAL_CAN_GetRxFifoFillLevel+0x1a>
 800122c:	6803      	ldr	r3, [r0, #0]
 800122e:	b919      	cbnz	r1, 8001238 <HAL_CAN_GetRxFifoFillLevel+0x16>
 8001230:	68d8      	ldr	r0, [r3, #12]
 8001232:	f000 0003 	and.w	r0, r0, #3
 8001236:	4770      	bx	lr
 8001238:	6918      	ldr	r0, [r3, #16]
 800123a:	e7fa      	b.n	8001232 <HAL_CAN_GetRxFifoFillLevel+0x10>
 800123c:	2000      	movs	r0, #0
 800123e:	4770      	bx	lr

08001240 <HAL_NVIC_SetPriorityGrouping>:
 8001240:	4907      	ldr	r1, [pc, #28]	; (8001260 <HAL_NVIC_SetPriorityGrouping+0x20>)
 8001242:	68ca      	ldr	r2, [r1, #12]
 8001244:	f422 62e0 	bic.w	r2, r2, #1792	; 0x700
 8001248:	0203      	lsls	r3, r0, #8
 800124a:	0412      	lsls	r2, r2, #16
 800124c:	f403 63e0 	and.w	r3, r3, #1792	; 0x700
 8001250:	0c12      	lsrs	r2, r2, #16
 8001252:	4313      	orrs	r3, r2
 8001254:	f043 63bf 	orr.w	r3, r3, #100139008	; 0x5f80000
 8001258:	f443 3300 	orr.w	r3, r3, #131072	; 0x20000
 800125c:	60cb      	str	r3, [r1, #12]
 800125e:	4770      	bx	lr
 8001260:	e000ed00 	.word	0xe000ed00

08001264 <HAL_NVIC_SetPriority>:
 8001264:	4b16      	ldr	r3, [pc, #88]	; (80012c0 <HAL_NVIC_SetPriority+0x5c>)
 8001266:	b530      	push	{r4, r5, lr}
 8001268:	68dc      	ldr	r4, [r3, #12]
 800126a:	f3c4 2402 	ubfx	r4, r4, #8, #3
 800126e:	f1c4 0307 	rsb	r3, r4, #7
 8001272:	1d25      	adds	r5, r4, #4
 8001274:	2b04      	cmp	r3, #4
 8001276:	bf28      	it	cs
 8001278:	2304      	movcs	r3, #4
 800127a:	2d06      	cmp	r5, #6
 800127c:	f04f 35ff 	mov.w	r5, #4294967295
 8001280:	bf8c      	ite	hi
 8001282:	3c03      	subhi	r4, #3
 8001284:	2400      	movls	r4, #0
 8001286:	fa05 f303 	lsl.w	r3, r5, r3
 800128a:	ea21 0303 	bic.w	r3, r1, r3
 800128e:	40a5      	lsls	r5, r4
 8001290:	ea22 0205 	bic.w	r2, r2, r5
 8001294:	40a3      	lsls	r3, r4
 8001296:	2800      	cmp	r0, #0
 8001298:	ea43 0302 	orr.w	r3, r3, r2
 800129c:	bfac      	ite	ge
 800129e:	f100 4060 	addge.w	r0, r0, #3758096384	; 0xe0000000
 80012a2:	4a08      	ldrlt	r2, [pc, #32]	; (80012c4 <HAL_NVIC_SetPriority+0x60>)
 80012a4:	ea4f 1303 	mov.w	r3, r3, lsl #4
 80012a8:	bfb8      	it	lt
 80012aa:	f000 000f 	andlt.w	r0, r0, #15
 80012ae:	b2db      	uxtb	r3, r3
 80012b0:	bfaa      	itet	ge
 80012b2:	f500 4061 	addge.w	r0, r0, #57600	; 0xe100
 80012b6:	5413      	strblt	r3, [r2, r0]
 80012b8:	f880 3300 	strbge.w	r3, [r0, #768]	; 0x300
 80012bc:	bd30      	pop	{r4, r5, pc}
 80012be:	bf00      	nop
 80012c0:	e000ed00 	.word	0xe000ed00
 80012c4:	e000ed14 	.word	0xe000ed14

080012c8 <HAL_SYSTICK_Config>:
 80012c8:	3801      	subs	r0, #1
 80012ca:	f1b0 7f80 	cmp.w	r0, #16777216	; 0x1000000
 80012ce:	d20b      	bcs.n	80012e8 <HAL_SYSTICK_Config+0x20>
 80012d0:	f04f 23e0 	mov.w	r3, #3758153728	; 0xe000e000
 80012d4:	4a05      	ldr	r2, [pc, #20]	; (80012ec <HAL_SYSTICK_Config+0x24>)
 80012d6:	6158      	str	r0, [r3, #20]
 80012d8:	21f0      	movs	r1, #240	; 0xf0
 80012da:	f882 1023 	strb.w	r1, [r2, #35]	; 0x23
 80012de:	2000      	movs	r0, #0
 80012e0:	2207      	movs	r2, #7
 80012e2:	6198      	str	r0, [r3, #24]
 80012e4:	611a      	str	r2, [r3, #16]
 80012e6:	4770      	bx	lr
 80012e8:	2001      	movs	r0, #1
 80012ea:	4770      	bx	lr
 80012ec:	e000ed00 	.word	0xe000ed00

080012f0 <CRC_Handle_8>:
 80012f0:	b5f0      	push	{r4, r5, r6, r7, lr}
 80012f2:	f022 0503 	bic.w	r5, r2, #3
 80012f6:	6807      	ldr	r7, [r0, #0]
 80012f8:	460c      	mov	r4, r1
 80012fa:	0896      	lsrs	r6, r2, #2
 80012fc:	440d      	add	r5, r1
 80012fe:	42a5      	cmp	r5, r4
 8001300:	d113      	bne.n	800132a <CRC_Handle_8+0x3a>
 8001302:	f012 0203 	ands.w	r2, r2, #3
 8001306:	d029      	beq.n	800135c <CRC_Handle_8+0x6c>
 8001308:	2a01      	cmp	r2, #1
 800130a:	d11f      	bne.n	800134c <CRC_Handle_8+0x5c>
 800130c:	f811 3026 	ldrb.w	r3, [r1, r6, lsl #2]
 8001310:	703b      	strb	r3, [r7, #0]
 8001312:	2a03      	cmp	r2, #3
 8001314:	6804      	ldr	r4, [r0, #0]
 8001316:	d121      	bne.n	800135c <CRC_Handle_8+0x6c>
 8001318:	f811 2026 	ldrb.w	r2, [r1, r6, lsl #2]
 800131c:	786b      	ldrb	r3, [r5, #1]
 800131e:	ea43 2302 	orr.w	r3, r3, r2, lsl #8
 8001322:	8023      	strh	r3, [r4, #0]
 8001324:	78ab      	ldrb	r3, [r5, #2]
 8001326:	7023      	strb	r3, [r4, #0]
 8001328:	e018      	b.n	800135c <CRC_Handle_8+0x6c>
 800132a:	7863      	ldrb	r3, [r4, #1]
 800132c:	f894 c000 	ldrb.w	ip, [r4]
 8001330:	041b      	lsls	r3, r3, #16
 8001332:	ea43 630c 	orr.w	r3, r3, ip, lsl #24
 8001336:	f894 c003 	ldrb.w	ip, [r4, #3]
 800133a:	ea43 030c 	orr.w	r3, r3, ip
 800133e:	f894 c002 	ldrb.w	ip, [r4, #2]
 8001342:	ea43 230c 	orr.w	r3, r3, ip, lsl #8
 8001346:	603b      	str	r3, [r7, #0]
 8001348:	3404      	adds	r4, #4
 800134a:	e7d8      	b.n	80012fe <CRC_Handle_8+0xe>
 800134c:	2a02      	cmp	r2, #2
 800134e:	d1e0      	bne.n	8001312 <CRC_Handle_8+0x22>
 8001350:	f811 2026 	ldrb.w	r2, [r1, r6, lsl #2]
 8001354:	786b      	ldrb	r3, [r5, #1]
 8001356:	ea43 2302 	orr.w	r3, r3, r2, lsl #8
 800135a:	803b      	strh	r3, [r7, #0]
 800135c:	6803      	ldr	r3, [r0, #0]
 800135e:	6818      	ldr	r0, [r3, #0]
 8001360:	bdf0      	pop	{r4, r5, r6, r7, pc}

08001362 <CRC_Handle_16>:
 8001362:	6800      	ldr	r0, [r0, #0]
 8001364:	b5f0      	push	{r4, r5, r6, r7, lr}
 8001366:	2300      	movs	r3, #0
 8001368:	0855      	lsrs	r5, r2, #1
 800136a:	1c8e      	adds	r6, r1, #2
 800136c:	429d      	cmp	r5, r3
 800136e:	d106      	bne.n	800137e <CRC_Handle_16+0x1c>
 8001370:	07d3      	lsls	r3, r2, #31
 8001372:	bf44      	itt	mi
 8001374:	f831 3025 	ldrhmi.w	r3, [r1, r5, lsl #2]
 8001378:	8003      	strhmi	r3, [r0, #0]
 800137a:	6800      	ldr	r0, [r0, #0]
 800137c:	bdf0      	pop	{r4, r5, r6, r7, pc}
 800137e:	f831 7023 	ldrh.w	r7, [r1, r3, lsl #2]
 8001382:	f836 4023 	ldrh.w	r4, [r6, r3, lsl #2]
 8001386:	ea44 4407 	orr.w	r4, r4, r7, lsl #16
 800138a:	6004      	str	r4, [r0, #0]
 800138c:	3301      	adds	r3, #1
 800138e:	e7ed      	b.n	800136c <CRC_Handle_16+0xa>

08001390 <HAL_CRC_Init>:
 8001390:	b510      	push	{r4, lr}
 8001392:	4604      	mov	r4, r0
 8001394:	b908      	cbnz	r0, 800139a <HAL_CRC_Init+0xa>
 8001396:	2001      	movs	r0, #1
 8001398:	bd10      	pop	{r4, pc}
 800139a:	7f43      	ldrb	r3, [r0, #29]
 800139c:	f003 02ff 	and.w	r2, r3, #255	; 0xff
 80013a0:	b913      	cbnz	r3, 80013a8 <HAL_CRC_Init+0x18>
 80013a2:	7702      	strb	r2, [r0, #28]
 80013a4:	f7ff fc9c 	bl	8000ce0 <HAL_CRC_MspInit>
 80013a8:	2302      	movs	r3, #2
 80013aa:	7763      	strb	r3, [r4, #29]
 80013ac:	7923      	ldrb	r3, [r4, #4]
 80013ae:	b9e3      	cbnz	r3, 80013ea <HAL_CRC_Init+0x5a>
 80013b0:	6823      	ldr	r3, [r4, #0]
 80013b2:	4a13      	ldr	r2, [pc, #76]	; (8001400 <HAL_CRC_Init+0x70>)
 80013b4:	615a      	str	r2, [r3, #20]
 80013b6:	689a      	ldr	r2, [r3, #8]
 80013b8:	f022 0218 	bic.w	r2, r2, #24
 80013bc:	609a      	str	r2, [r3, #8]
 80013be:	7962      	ldrb	r2, [r4, #5]
 80013c0:	6823      	ldr	r3, [r4, #0]
 80013c2:	b9d2      	cbnz	r2, 80013fa <HAL_CRC_Init+0x6a>
 80013c4:	f04f 32ff 	mov.w	r2, #4294967295
 80013c8:	611a      	str	r2, [r3, #16]
 80013ca:	689a      	ldr	r2, [r3, #8]
 80013cc:	6961      	ldr	r1, [r4, #20]
 80013ce:	f022 0260 	bic.w	r2, r2, #96	; 0x60
 80013d2:	430a      	orrs	r2, r1
 80013d4:	609a      	str	r2, [r3, #8]
 80013d6:	689a      	ldr	r2, [r3, #8]
 80013d8:	69a1      	ldr	r1, [r4, #24]
 80013da:	f022 0280 	bic.w	r2, r2, #128	; 0x80
 80013de:	430a      	orrs	r2, r1
 80013e0:	609a      	str	r2, [r3, #8]
 80013e2:	2301      	movs	r3, #1
 80013e4:	7763      	strb	r3, [r4, #29]
 80013e6:	2000      	movs	r0, #0
 80013e8:	e7d6      	b.n	8001398 <HAL_CRC_Init+0x8>
 80013ea:	e9d4 1202 	ldrd	r1, r2, [r4, #8]
 80013ee:	4620      	mov	r0, r4
 80013f0:	f000 f82e 	bl	8001450 <HAL_CRCEx_Polynomial_Set>
 80013f4:	2800      	cmp	r0, #0
 80013f6:	d0e2      	beq.n	80013be <HAL_CRC_Init+0x2e>
 80013f8:	e7cd      	b.n	8001396 <HAL_CRC_Init+0x6>
 80013fa:	6922      	ldr	r2, [r4, #16]
 80013fc:	e7e4      	b.n	80013c8 <HAL_CRC_Init+0x38>
 80013fe:	bf00      	nop
 8001400:	04c11db7 	.word	0x04c11db7

08001404 <HAL_CRC_Calculate>:
 8001404:	b5f8      	push	{r3, r4, r5, r6, r7, lr}
 8001406:	2602      	movs	r6, #2
 8001408:	7746      	strb	r6, [r0, #29]
 800140a:	6806      	ldr	r6, [r0, #0]
 800140c:	68b7      	ldr	r7, [r6, #8]
 800140e:	f047 0701 	orr.w	r7, r7, #1
 8001412:	60b7      	str	r7, [r6, #8]
 8001414:	6a07      	ldr	r7, [r0, #32]
 8001416:	2f02      	cmp	r7, #2
 8001418:	4604      	mov	r4, r0
 800141a:	d014      	beq.n	8001446 <HAL_CRC_Calculate+0x42>
 800141c:	2f03      	cmp	r7, #3
 800141e:	d005      	beq.n	800142c <HAL_CRC_Calculate+0x28>
 8001420:	2f01      	cmp	r7, #1
 8001422:	d00d      	beq.n	8001440 <HAL_CRC_Calculate+0x3c>
 8001424:	2000      	movs	r0, #0
 8001426:	2301      	movs	r3, #1
 8001428:	7763      	strb	r3, [r4, #29]
 800142a:	bdf8      	pop	{r3, r4, r5, r6, r7, pc}
 800142c:	eb01 0582 	add.w	r5, r1, r2, lsl #2
 8001430:	42a9      	cmp	r1, r5
 8001432:	d101      	bne.n	8001438 <HAL_CRC_Calculate+0x34>
 8001434:	6830      	ldr	r0, [r6, #0]
 8001436:	e7f6      	b.n	8001426 <HAL_CRC_Calculate+0x22>
 8001438:	f851 3b04 	ldr.w	r3, [r1], #4
 800143c:	6033      	str	r3, [r6, #0]
 800143e:	e7f7      	b.n	8001430 <HAL_CRC_Calculate+0x2c>
 8001440:	f7ff ff56 	bl	80012f0 <CRC_Handle_8>
 8001444:	e7ef      	b.n	8001426 <HAL_CRC_Calculate+0x22>
 8001446:	f7ff ff8c 	bl	8001362 <CRC_Handle_16>
 800144a:	e7ec      	b.n	8001426 <HAL_CRC_Calculate+0x22>

0800144c <HAL_CRC_GetState>:
 800144c:	7f40      	ldrb	r0, [r0, #29]
 800144e:	4770      	bx	lr

08001450 <HAL_CRCEx_Polynomial_Set>:
 8001450:	07cb      	lsls	r3, r1, #31
 8001452:	b510      	push	{r4, lr}
 8001454:	d50c      	bpl.n	8001470 <HAL_CRCEx_Polynomial_Set+0x20>
 8001456:	231f      	movs	r3, #31
 8001458:	3b01      	subs	r3, #1
 800145a:	d31c      	bcc.n	8001496 <HAL_CRCEx_Polynomial_Set+0x46>
 800145c:	fa21 f403 	lsr.w	r4, r1, r3
 8001460:	07e4      	lsls	r4, r4, #31
 8001462:	d5f9      	bpl.n	8001458 <HAL_CRCEx_Polynomial_Set+0x8>
 8001464:	2a10      	cmp	r2, #16
 8001466:	d012      	beq.n	800148e <HAL_CRCEx_Polynomial_Set+0x3e>
 8001468:	d804      	bhi.n	8001474 <HAL_CRCEx_Polynomial_Set+0x24>
 800146a:	b13a      	cbz	r2, 800147c <HAL_CRCEx_Polynomial_Set+0x2c>
 800146c:	2a08      	cmp	r2, #8
 800146e:	d010      	beq.n	8001492 <HAL_CRCEx_Polynomial_Set+0x42>
 8001470:	2001      	movs	r0, #1
 8001472:	e00b      	b.n	800148c <HAL_CRCEx_Polynomial_Set+0x3c>
 8001474:	2a18      	cmp	r2, #24
 8001476:	d1fb      	bne.n	8001470 <HAL_CRCEx_Polynomial_Set+0x20>
 8001478:	2b06      	cmp	r3, #6
 800147a:	d8f9      	bhi.n	8001470 <HAL_CRCEx_Polynomial_Set+0x20>
 800147c:	6800      	ldr	r0, [r0, #0]
 800147e:	6141      	str	r1, [r0, #20]
 8001480:	6883      	ldr	r3, [r0, #8]
 8001482:	f023 0318 	bic.w	r3, r3, #24
 8001486:	4313      	orrs	r3, r2
 8001488:	6083      	str	r3, [r0, #8]
 800148a:	2000      	movs	r0, #0
 800148c:	bd10      	pop	{r4, pc}
 800148e:	2b07      	cmp	r3, #7
 8001490:	e7f3      	b.n	800147a <HAL_CRCEx_Polynomial_Set+0x2a>
 8001492:	2b0f      	cmp	r3, #15
 8001494:	e7f1      	b.n	800147a <HAL_CRCEx_Polynomial_Set+0x2a>
 8001496:	2a00      	cmp	r2, #0
 8001498:	d1ea      	bne.n	8001470 <HAL_CRCEx_Polynomial_Set+0x20>
 800149a:	e7ef      	b.n	800147c <HAL_CRCEx_Polynomial_Set+0x2c>

0800149c <FLASH_Program_Fast>:
 800149c:	4a09      	ldr	r2, [pc, #36]	; (80014c4 <FLASH_Program_Fast+0x28>)
 800149e:	6953      	ldr	r3, [r2, #20]
 80014a0:	f443 2380 	orr.w	r3, r3, #262144	; 0x40000
 80014a4:	b510      	push	{r4, lr}
 80014a6:	6153      	str	r3, [r2, #20]
 80014a8:	f3ef 8210 	mrs	r2, PRIMASK
 80014ac:	b672      	cpsid	i
 80014ae:	2300      	movs	r3, #0
 80014b0:	58cc      	ldr	r4, [r1, r3]
 80014b2:	50c4      	str	r4, [r0, r3]
 80014b4:	3304      	adds	r3, #4
 80014b6:	f5b3 7f80 	cmp.w	r3, #256	; 0x100
 80014ba:	d1f9      	bne.n	80014b0 <FLASH_Program_Fast+0x14>
 80014bc:	f382 8810 	msr	PRIMASK, r2
 80014c0:	bd10      	pop	{r4, pc}
 80014c2:	bf00      	nop
 80014c4:	40022000 	.word	0x40022000

080014c8 <HAL_FLASH_Unlock>:
 80014c8:	4b06      	ldr	r3, [pc, #24]	; (80014e4 <HAL_FLASH_Unlock+0x1c>)
 80014ca:	695a      	ldr	r2, [r3, #20]
 80014cc:	2a00      	cmp	r2, #0
 80014ce:	bfbf      	itttt	lt
 80014d0:	4a05      	ldrlt	r2, [pc, #20]	; (80014e8 <HAL_FLASH_Unlock+0x20>)
 80014d2:	609a      	strlt	r2, [r3, #8]
 80014d4:	f102 3288 	addlt.w	r2, r2, #2290649224	; 0x88888888
 80014d8:	609a      	strlt	r2, [r3, #8]
 80014da:	bfba      	itte	lt
 80014dc:	6958      	ldrlt	r0, [r3, #20]
 80014de:	0fc0      	lsrlt	r0, r0, #31
 80014e0:	2000      	movge	r0, #0
 80014e2:	4770      	bx	lr
 80014e4:	40022000 	.word	0x40022000
 80014e8:	45670123 	.word	0x45670123

080014ec <HAL_FLASH_Lock>:
 80014ec:	4a03      	ldr	r2, [pc, #12]	; (80014fc <HAL_FLASH_Lock+0x10>)
 80014ee:	6953      	ldr	r3, [r2, #20]
 80014f0:	f043 4300 	orr.w	r3, r3, #2147483648	; 0x80000000
 80014f4:	6153      	str	r3, [r2, #20]
 80014f6:	2000      	movs	r0, #0
 80014f8:	4770      	bx	lr
 80014fa:	bf00      	nop
 80014fc:	40022000 	.word	0x40022000

08001500 <FLASH_WaitForLastOperation>:
 8001500:	b570      	push	{r4, r5, r6, lr}
 8001502:	4605      	mov	r5, r0
 8001504:	f7ff fc94 	bl	8000e30 <HAL_GetTick>
 8001508:	4c10      	ldr	r4, [pc, #64]	; (800154c <FLASH_WaitForLastOperation+0x4c>)
 800150a:	4606      	mov	r6, r0
 800150c:	6923      	ldr	r3, [r4, #16]
 800150e:	03db      	lsls	r3, r3, #15
 8001510:	d40a      	bmi.n	8001528 <FLASH_WaitForLastOperation+0x28>
 8001512:	6923      	ldr	r3, [r4, #16]
 8001514:	4a0e      	ldr	r2, [pc, #56]	; (8001550 <FLASH_WaitForLastOperation+0x50>)
 8001516:	4013      	ands	r3, r2
 8001518:	d00f      	beq.n	800153a <FLASH_WaitForLastOperation+0x3a>
 800151a:	490e      	ldr	r1, [pc, #56]	; (8001554 <FLASH_WaitForLastOperation+0x54>)
 800151c:	684a      	ldr	r2, [r1, #4]
 800151e:	431a      	orrs	r2, r3
 8001520:	604a      	str	r2, [r1, #4]
 8001522:	2001      	movs	r0, #1
 8001524:	6123      	str	r3, [r4, #16]
 8001526:	bd70      	pop	{r4, r5, r6, pc}
 8001528:	1c6a      	adds	r2, r5, #1
 800152a:	d0ef      	beq.n	800150c <FLASH_WaitForLastOperation+0xc>
 800152c:	f7ff fc80 	bl	8000e30 <HAL_GetTick>
 8001530:	1b80      	subs	r0, r0, r6
 8001532:	42a8      	cmp	r0, r5
 8001534:	d3ea      	bcc.n	800150c <FLASH_WaitForLastOperation+0xc>
 8001536:	2003      	movs	r0, #3
 8001538:	e7f5      	b.n	8001526 <FLASH_WaitForLastOperation+0x26>
 800153a:	6920      	ldr	r0, [r4, #16]
 800153c:	f010 0001 	ands.w	r0, r0, #1
 8001540:	d0f1      	beq.n	8001526 <FLASH_WaitForLastOperation+0x26>
 8001542:	2201      	movs	r2, #1
 8001544:	6122      	str	r2, [r4, #16]
 8001546:	4618      	mov	r0, r3
 8001548:	e7ed      	b.n	8001526 <FLASH_WaitForLastOperation+0x26>
 800154a:	bf00      	nop
 800154c:	40022000 	.word	0x40022000
 8001550:	0002c3fa 	.word	0x0002c3fa
 8001554:	2000003c 	.word	0x2000003c

08001558 <HAL_FLASH_Program>:
 8001558:	e92d 43f8 	stmdb	sp!, {r3, r4, r5, r6, r7, r8, r9, lr}
 800155c:	4d25      	ldr	r5, [pc, #148]	; (80015f4 <HAL_FLASH_Program+0x9c>)
 800155e:	4699      	mov	r9, r3
 8001560:	782b      	ldrb	r3, [r5, #0]
 8001562:	2b01      	cmp	r3, #1
 8001564:	4604      	mov	r4, r0
 8001566:	460f      	mov	r7, r1
 8001568:	4690      	mov	r8, r2
 800156a:	d041      	beq.n	80015f0 <HAL_FLASH_Program+0x98>
 800156c:	2301      	movs	r3, #1
 800156e:	f24c 3050 	movw	r0, #50000	; 0xc350
 8001572:	702b      	strb	r3, [r5, #0]
 8001574:	f7ff ffc4 	bl	8001500 <FLASH_WaitForLastOperation>
 8001578:	4606      	mov	r6, r0
 800157a:	bb30      	cbnz	r0, 80015ca <HAL_FLASH_Program+0x72>
 800157c:	6068      	str	r0, [r5, #4]
 800157e:	481e      	ldr	r0, [pc, #120]	; (80015f8 <HAL_FLASH_Program+0xa0>)
 8001580:	6802      	ldr	r2, [r0, #0]
 8001582:	f412 6280 	ands.w	r2, r2, #1024	; 0x400
 8001586:	bf17      	itett	ne
 8001588:	6803      	ldrne	r3, [r0, #0]
 800158a:	772a      	strbeq	r2, [r5, #28]
 800158c:	f423 6380 	bicne.w	r3, r3, #1024	; 0x400
 8001590:	6003      	strne	r3, [r0, #0]
 8001592:	bf1c      	itt	ne
 8001594:	2302      	movne	r3, #2
 8001596:	772b      	strbne	r3, [r5, #28]
 8001598:	b9e4      	cbnz	r4, 80015d4 <HAL_FLASH_Program+0x7c>
 800159a:	6943      	ldr	r3, [r0, #20]
 800159c:	f043 0301 	orr.w	r3, r3, #1
 80015a0:	6143      	str	r3, [r0, #20]
 80015a2:	f8c7 8000 	str.w	r8, [r7]
 80015a6:	f3bf 8f6f 	isb	sy
 80015aa:	2401      	movs	r4, #1
 80015ac:	f8c7 9004 	str.w	r9, [r7, #4]
 80015b0:	f24c 3050 	movw	r0, #50000	; 0xc350
 80015b4:	f7ff ffa4 	bl	8001500 <FLASH_WaitForLastOperation>
 80015b8:	4606      	mov	r6, r0
 80015ba:	b124      	cbz	r4, 80015c6 <HAL_FLASH_Program+0x6e>
 80015bc:	4a0e      	ldr	r2, [pc, #56]	; (80015f8 <HAL_FLASH_Program+0xa0>)
 80015be:	6953      	ldr	r3, [r2, #20]
 80015c0:	ea23 0304 	bic.w	r3, r3, r4
 80015c4:	6153      	str	r3, [r2, #20]
 80015c6:	f000 f83d 	bl	8001644 <FLASH_FlushCaches>
 80015ca:	2300      	movs	r3, #0
 80015cc:	702b      	strb	r3, [r5, #0]
 80015ce:	4630      	mov	r0, r6
 80015d0:	e8bd 83f8 	ldmia.w	sp!, {r3, r4, r5, r6, r7, r8, r9, pc}
 80015d4:	1e63      	subs	r3, r4, #1
 80015d6:	2b01      	cmp	r3, #1
 80015d8:	d808      	bhi.n	80015ec <HAL_FLASH_Program+0x94>
 80015da:	4641      	mov	r1, r8
 80015dc:	4638      	mov	r0, r7
 80015de:	f7ff ff5d 	bl	800149c <FLASH_Program_Fast>
 80015e2:	1ea3      	subs	r3, r4, #2
 80015e4:	425c      	negs	r4, r3
 80015e6:	415c      	adcs	r4, r3
 80015e8:	04a4      	lsls	r4, r4, #18
 80015ea:	e7e1      	b.n	80015b0 <HAL_FLASH_Program+0x58>
 80015ec:	2400      	movs	r4, #0
 80015ee:	e7df      	b.n	80015b0 <HAL_FLASH_Program+0x58>
 80015f0:	2602      	movs	r6, #2
 80015f2:	e7ec      	b.n	80015ce <HAL_FLASH_Program+0x76>
 80015f4:	2000003c 	.word	0x2000003c
 80015f8:	40022000 	.word	0x40022000

080015fc <FLASH_MassErase>:
 80015fc:	4b06      	ldr	r3, [pc, #24]	; (8001618 <FLASH_MassErase+0x1c>)
 80015fe:	f010 0f01 	tst.w	r0, #1
 8001602:	bf1e      	ittt	ne
 8001604:	695a      	ldrne	r2, [r3, #20]
 8001606:	f042 0204 	orrne.w	r2, r2, #4
 800160a:	615a      	strne	r2, [r3, #20]
 800160c:	695a      	ldr	r2, [r3, #20]
 800160e:	f442 3280 	orr.w	r2, r2, #65536	; 0x10000
 8001612:	615a      	str	r2, [r3, #20]
 8001614:	4770      	bx	lr
 8001616:	bf00      	nop
 8001618:	40022000 	.word	0x40022000

0800161c <FLASH_PageErase>:
 800161c:	4b08      	ldr	r3, [pc, #32]	; (8001640 <FLASH_PageErase+0x24>)
 800161e:	695a      	ldr	r2, [r3, #20]
 8001620:	00c0      	lsls	r0, r0, #3
 8001622:	f422 727e 	bic.w	r2, r2, #1016	; 0x3f8
 8001626:	f400 60ff 	and.w	r0, r0, #2040	; 0x7f8
 800162a:	4310      	orrs	r0, r2
 800162c:	6158      	str	r0, [r3, #20]
 800162e:	695a      	ldr	r2, [r3, #20]
 8001630:	f042 0202 	orr.w	r2, r2, #2
 8001634:	615a      	str	r2, [r3, #20]
 8001636:	695a      	ldr	r2, [r3, #20]
 8001638:	f442 3280 	orr.w	r2, r2, #65536	; 0x10000
 800163c:	615a      	str	r2, [r3, #20]
 800163e:	4770      	bx	lr
 8001640:	40022000 	.word	0x40022000

08001644 <FLASH_FlushCaches>:
 8001644:	4815      	ldr	r0, [pc, #84]	; (800169c <FLASH_FlushCaches+0x58>)
 8001646:	7f03      	ldrb	r3, [r0, #28]
 8001648:	b2da      	uxtb	r2, r3
 800164a:	f003 03fd 	and.w	r3, r3, #253	; 0xfd
 800164e:	2b01      	cmp	r3, #1
 8001650:	d110      	bne.n	8001674 <FLASH_FlushCaches+0x30>
 8001652:	4b13      	ldr	r3, [pc, #76]	; (80016a0 <FLASH_FlushCaches+0x5c>)
 8001654:	6819      	ldr	r1, [r3, #0]
 8001656:	f421 7100 	bic.w	r1, r1, #512	; 0x200
 800165a:	6019      	str	r1, [r3, #0]
 800165c:	6819      	ldr	r1, [r3, #0]
 800165e:	f441 6100 	orr.w	r1, r1, #2048	; 0x800
 8001662:	6019      	str	r1, [r3, #0]
 8001664:	6819      	ldr	r1, [r3, #0]
 8001666:	f421 6100 	bic.w	r1, r1, #2048	; 0x800
 800166a:	6019      	str	r1, [r3, #0]
 800166c:	6819      	ldr	r1, [r3, #0]
 800166e:	f441 7100 	orr.w	r1, r1, #512	; 0x200
 8001672:	6019      	str	r1, [r3, #0]
 8001674:	1e93      	subs	r3, r2, #2
 8001676:	2b01      	cmp	r3, #1
 8001678:	d80c      	bhi.n	8001694 <FLASH_FlushCaches+0x50>
 800167a:	4b09      	ldr	r3, [pc, #36]	; (80016a0 <FLASH_FlushCaches+0x5c>)
 800167c:	681a      	ldr	r2, [r3, #0]
 800167e:	f442 5280 	orr.w	r2, r2, #4096	; 0x1000
 8001682:	601a      	str	r2, [r3, #0]
 8001684:	681a      	ldr	r2, [r3, #0]
 8001686:	f422 5280 	bic.w	r2, r2, #4096	; 0x1000
 800168a:	601a      	str	r2, [r3, #0]
 800168c:	681a      	ldr	r2, [r3, #0]
 800168e:	f442 6280 	orr.w	r2, r2, #1024	; 0x400
 8001692:	601a      	str	r2, [r3, #0]
 8001694:	2300      	movs	r3, #0
 8001696:	7703      	strb	r3, [r0, #28]
 8001698:	4770      	bx	lr
 800169a:	bf00      	nop
 800169c:	2000003c 	.word	0x2000003c
 80016a0:	40022000 	.word	0x40022000

080016a4 <HAL_FLASHEx_Erase>:
 80016a4:	e92d 47f0 	stmdb	sp!, {r4, r5, r6, r7, r8, r9, sl, lr}
 80016a8:	4d32      	ldr	r5, [pc, #200]	; (8001774 <HAL_FLASHEx_Erase+0xd0>)
 80016aa:	782b      	ldrb	r3, [r5, #0]
 80016ac:	2b01      	cmp	r3, #1
 80016ae:	4606      	mov	r6, r0
 80016b0:	4688      	mov	r8, r1
 80016b2:	d05c      	beq.n	800176e <HAL_FLASHEx_Erase+0xca>
 80016b4:	2701      	movs	r7, #1
 80016b6:	f24c 3050 	movw	r0, #50000	; 0xc350
 80016ba:	702f      	strb	r7, [r5, #0]
 80016bc:	f7ff ff20 	bl	8001500 <FLASH_WaitForLastOperation>
 80016c0:	4604      	mov	r4, r0
 80016c2:	bb10      	cbnz	r0, 800170a <HAL_FLASHEx_Erase+0x66>
 80016c4:	4b2c      	ldr	r3, [pc, #176]	; (8001778 <HAL_FLASHEx_Erase+0xd4>)
 80016c6:	6068      	str	r0, [r5, #4]
 80016c8:	681a      	ldr	r2, [r3, #0]
 80016ca:	f412 7f00 	tst.w	r2, #512	; 0x200
 80016ce:	681a      	ldr	r2, [r3, #0]
 80016d0:	d020      	beq.n	8001714 <HAL_FLASHEx_Erase+0x70>
 80016d2:	0551      	lsls	r1, r2, #21
 80016d4:	d506      	bpl.n	80016e4 <HAL_FLASHEx_Erase+0x40>
 80016d6:	681a      	ldr	r2, [r3, #0]
 80016d8:	f422 6280 	bic.w	r2, r2, #1024	; 0x400
 80016dc:	601a      	str	r2, [r3, #0]
 80016de:	2303      	movs	r3, #3
 80016e0:	772b      	strb	r3, [r5, #28]
 80016e2:	e000      	b.n	80016e6 <HAL_FLASHEx_Erase+0x42>
 80016e4:	772f      	strb	r7, [r5, #28]
 80016e6:	6833      	ldr	r3, [r6, #0]
 80016e8:	2b01      	cmp	r3, #1
 80016ea:	d11d      	bne.n	8001728 <HAL_FLASHEx_Erase+0x84>
 80016ec:	6870      	ldr	r0, [r6, #4]
 80016ee:	f7ff ff85 	bl	80015fc <FLASH_MassErase>
 80016f2:	f24c 3050 	movw	r0, #50000	; 0xc350
 80016f6:	f7ff ff03 	bl	8001500 <FLASH_WaitForLastOperation>
 80016fa:	4a1f      	ldr	r2, [pc, #124]	; (8001778 <HAL_FLASHEx_Erase+0xd4>)
 80016fc:	6953      	ldr	r3, [r2, #20]
 80016fe:	f023 0304 	bic.w	r3, r3, #4
 8001702:	4604      	mov	r4, r0
 8001704:	6153      	str	r3, [r2, #20]
 8001706:	f7ff ff9d 	bl	8001644 <FLASH_FlushCaches>
 800170a:	2300      	movs	r3, #0
 800170c:	702b      	strb	r3, [r5, #0]
 800170e:	4620      	mov	r0, r4
 8001710:	e8bd 87f0 	ldmia.w	sp!, {r4, r5, r6, r7, r8, r9, sl, pc}
 8001714:	0552      	lsls	r2, r2, #21
 8001716:	d505      	bpl.n	8001724 <HAL_FLASHEx_Erase+0x80>
 8001718:	681a      	ldr	r2, [r3, #0]
 800171a:	f422 6280 	bic.w	r2, r2, #1024	; 0x400
 800171e:	601a      	str	r2, [r3, #0]
 8001720:	2302      	movs	r3, #2
 8001722:	e7dd      	b.n	80016e0 <HAL_FLASHEx_Erase+0x3c>
 8001724:	7728      	strb	r0, [r5, #28]
 8001726:	e7de      	b.n	80016e6 <HAL_FLASHEx_Erase+0x42>
 8001728:	f04f 33ff 	mov.w	r3, #4294967295
 800172c:	f8c8 3000 	str.w	r3, [r8]
 8001730:	68b7      	ldr	r7, [r6, #8]
 8001732:	f8df 9044 	ldr.w	r9, [pc, #68]	; 8001778 <HAL_FLASHEx_Erase+0xd4>
 8001736:	f8df a044 	ldr.w	sl, [pc, #68]	; 800177c <HAL_FLASHEx_Erase+0xd8>
 800173a:	e9d6 3202 	ldrd	r3, r2, [r6, #8]
 800173e:	4413      	add	r3, r2
 8001740:	42bb      	cmp	r3, r7
 8001742:	d9e0      	bls.n	8001706 <HAL_FLASHEx_Erase+0x62>
 8001744:	6871      	ldr	r1, [r6, #4]
 8001746:	4638      	mov	r0, r7
 8001748:	f7ff ff68 	bl	800161c <FLASH_PageErase>
 800174c:	f24c 3050 	movw	r0, #50000	; 0xc350
 8001750:	f7ff fed6 	bl	8001500 <FLASH_WaitForLastOperation>
 8001754:	f8d9 3014 	ldr.w	r3, [r9, #20]
 8001758:	ea03 030a 	and.w	r3, r3, sl
 800175c:	f8c9 3014 	str.w	r3, [r9, #20]
 8001760:	b118      	cbz	r0, 800176a <HAL_FLASHEx_Erase+0xc6>
 8001762:	f8c8 7000 	str.w	r7, [r8]
 8001766:	4604      	mov	r4, r0
 8001768:	e7cd      	b.n	8001706 <HAL_FLASHEx_Erase+0x62>
 800176a:	3701      	adds	r7, #1
 800176c:	e7e5      	b.n	800173a <HAL_FLASHEx_Erase+0x96>
 800176e:	2402      	movs	r4, #2
 8001770:	e7cd      	b.n	800170e <HAL_FLASHEx_Erase+0x6a>
 8001772:	bf00      	nop
 8001774:	2000003c 	.word	0x2000003c
 8001778:	40022000 	.word	0x40022000
 800177c:	fffffc05 	.word	0xfffffc05

08001780 <HAL_GPIO_Init>:
 8001780:	e92d 4ff7 	stmdb	sp!, {r0, r1, r2, r4, r5, r6, r7, r8, r9, sl, fp, lr}
 8001784:	f8df 917c 	ldr.w	r9, [pc, #380]	; 8001904 <HAL_GPIO_Init+0x184>
 8001788:	4c5c      	ldr	r4, [pc, #368]	; (80018fc <HAL_GPIO_Init+0x17c>)
 800178a:	2300      	movs	r3, #0
 800178c:	680a      	ldr	r2, [r1, #0]
 800178e:	fa32 f503 	lsrs.w	r5, r2, r3
 8001792:	d102      	bne.n	800179a <HAL_GPIO_Init+0x1a>
 8001794:	b003      	add	sp, #12
 8001796:	e8bd 8ff0 	ldmia.w	sp!, {r4, r5, r6, r7, r8, r9, sl, fp, pc}
 800179a:	2501      	movs	r5, #1
 800179c:	fa05 fe03 	lsl.w	lr, r5, r3
 80017a0:	ea1e 0202 	ands.w	r2, lr, r2
 80017a4:	f000 80a0 	beq.w	80018e8 <HAL_GPIO_Init+0x168>
 80017a8:	684e      	ldr	r6, [r1, #4]
 80017aa:	2703      	movs	r7, #3
 80017ac:	f006 0503 	and.w	r5, r6, #3
 80017b0:	ea4f 0843 	mov.w	r8, r3, lsl #1
 80017b4:	fa07 fc08 	lsl.w	ip, r7, r8
 80017b8:	1e6f      	subs	r7, r5, #1
 80017ba:	2f01      	cmp	r7, #1
 80017bc:	ea6f 0c0c 	mvn.w	ip, ip
 80017c0:	d834      	bhi.n	800182c <HAL_GPIO_Init+0xac>
 80017c2:	6887      	ldr	r7, [r0, #8]
 80017c4:	ea07 0a0c 	and.w	sl, r7, ip
 80017c8:	68cf      	ldr	r7, [r1, #12]
 80017ca:	fa07 f708 	lsl.w	r7, r7, r8
 80017ce:	ea47 070a 	orr.w	r7, r7, sl
 80017d2:	6087      	str	r7, [r0, #8]
 80017d4:	6847      	ldr	r7, [r0, #4]
 80017d6:	ea27 0e0e 	bic.w	lr, r7, lr
 80017da:	f3c6 1700 	ubfx	r7, r6, #4, #1
 80017de:	409f      	lsls	r7, r3
 80017e0:	ea47 070e 	orr.w	r7, r7, lr
 80017e4:	6047      	str	r7, [r0, #4]
 80017e6:	68c7      	ldr	r7, [r0, #12]
 80017e8:	ea07 0e0c 	and.w	lr, r7, ip
 80017ec:	688f      	ldr	r7, [r1, #8]
 80017ee:	fa07 f708 	lsl.w	r7, r7, r8
 80017f2:	ea47 070e 	orr.w	r7, r7, lr
 80017f6:	2d02      	cmp	r5, #2
 80017f8:	60c7      	str	r7, [r0, #12]
 80017fa:	d119      	bne.n	8001830 <HAL_GPIO_Init+0xb0>
 80017fc:	ea4f 0ad3 	mov.w	sl, r3, lsr #3
 8001800:	eb00 0a8a 	add.w	sl, r0, sl, lsl #2
 8001804:	f003 0b07 	and.w	fp, r3, #7
 8001808:	f8da 7020 	ldr.w	r7, [sl, #32]
 800180c:	ea4f 0b8b 	mov.w	fp, fp, lsl #2
 8001810:	f04f 0e0f 	mov.w	lr, #15
 8001814:	fa0e fe0b 	lsl.w	lr, lr, fp
 8001818:	ea27 0e0e 	bic.w	lr, r7, lr
 800181c:	690f      	ldr	r7, [r1, #16]
 800181e:	fa07 f70b 	lsl.w	r7, r7, fp
 8001822:	ea47 070e 	orr.w	r7, r7, lr
 8001826:	f8ca 7020 	str.w	r7, [sl, #32]
 800182a:	e001      	b.n	8001830 <HAL_GPIO_Init+0xb0>
 800182c:	2d03      	cmp	r5, #3
 800182e:	d1da      	bne.n	80017e6 <HAL_GPIO_Init+0x66>
 8001830:	6807      	ldr	r7, [r0, #0]
 8001832:	fa05 f508 	lsl.w	r5, r5, r8
 8001836:	ea07 070c 	and.w	r7, r7, ip
 800183a:	433d      	orrs	r5, r7
 800183c:	f416 3f40 	tst.w	r6, #196608	; 0x30000
 8001840:	6005      	str	r5, [r0, #0]
 8001842:	d051      	beq.n	80018e8 <HAL_GPIO_Init+0x168>
 8001844:	f8d9 5060 	ldr.w	r5, [r9, #96]	; 0x60
 8001848:	f045 0501 	orr.w	r5, r5, #1
 800184c:	f8c9 5060 	str.w	r5, [r9, #96]	; 0x60
 8001850:	f8d9 5060 	ldr.w	r5, [r9, #96]	; 0x60
 8001854:	f023 0703 	bic.w	r7, r3, #3
 8001858:	f107 4780 	add.w	r7, r7, #1073741824	; 0x40000000
 800185c:	f005 0501 	and.w	r5, r5, #1
 8001860:	f507 3780 	add.w	r7, r7, #65536	; 0x10000
 8001864:	9501      	str	r5, [sp, #4]
 8001866:	f003 0e03 	and.w	lr, r3, #3
 800186a:	9d01      	ldr	r5, [sp, #4]
 800186c:	68bd      	ldr	r5, [r7, #8]
 800186e:	ea4f 0e8e 	mov.w	lr, lr, lsl #2
 8001872:	f04f 0c0f 	mov.w	ip, #15
 8001876:	fa0c fc0e 	lsl.w	ip, ip, lr
 800187a:	f1b0 4f90 	cmp.w	r0, #1207959552	; 0x48000000
 800187e:	ea25 0c0c 	bic.w	ip, r5, ip
 8001882:	d033      	beq.n	80018ec <HAL_GPIO_Init+0x16c>
 8001884:	4d1e      	ldr	r5, [pc, #120]	; (8001900 <HAL_GPIO_Init+0x180>)
 8001886:	42a8      	cmp	r0, r5
 8001888:	d032      	beq.n	80018f0 <HAL_GPIO_Init+0x170>
 800188a:	f505 6580 	add.w	r5, r5, #1024	; 0x400
 800188e:	42a8      	cmp	r0, r5
 8001890:	d030      	beq.n	80018f4 <HAL_GPIO_Init+0x174>
 8001892:	f505 6580 	add.w	r5, r5, #1024	; 0x400
 8001896:	42a8      	cmp	r0, r5
 8001898:	d02e      	beq.n	80018f8 <HAL_GPIO_Init+0x178>
 800189a:	f505 6580 	add.w	r5, r5, #1024	; 0x400
 800189e:	42a8      	cmp	r0, r5
 80018a0:	bf0c      	ite	eq
 80018a2:	2504      	moveq	r5, #4
 80018a4:	2507      	movne	r5, #7
 80018a6:	fa05 f50e 	lsl.w	r5, r5, lr
 80018aa:	ea45 050c 	orr.w	r5, r5, ip
 80018ae:	60bd      	str	r5, [r7, #8]
 80018b0:	68a5      	ldr	r5, [r4, #8]
 80018b2:	43d7      	mvns	r7, r2
 80018b4:	f416 1f80 	tst.w	r6, #1048576	; 0x100000
 80018b8:	bf0c      	ite	eq
 80018ba:	403d      	andeq	r5, r7
 80018bc:	4315      	orrne	r5, r2
 80018be:	60a5      	str	r5, [r4, #8]
 80018c0:	68e5      	ldr	r5, [r4, #12]
 80018c2:	f416 1f00 	tst.w	r6, #2097152	; 0x200000
 80018c6:	bf0c      	ite	eq
 80018c8:	403d      	andeq	r5, r7
 80018ca:	4315      	orrne	r5, r2
 80018cc:	60e5      	str	r5, [r4, #12]
 80018ce:	6865      	ldr	r5, [r4, #4]
 80018d0:	f416 3f00 	tst.w	r6, #131072	; 0x20000
 80018d4:	bf0c      	ite	eq
 80018d6:	403d      	andeq	r5, r7
 80018d8:	4315      	orrne	r5, r2
 80018da:	6065      	str	r5, [r4, #4]
 80018dc:	6825      	ldr	r5, [r4, #0]
 80018de:	03f6      	lsls	r6, r6, #15
 80018e0:	bf54      	ite	pl
 80018e2:	403d      	andpl	r5, r7
 80018e4:	4315      	orrmi	r5, r2
 80018e6:	6025      	str	r5, [r4, #0]
 80018e8:	3301      	adds	r3, #1
 80018ea:	e74f      	b.n	800178c <HAL_GPIO_Init+0xc>
 80018ec:	2500      	movs	r5, #0
 80018ee:	e7da      	b.n	80018a6 <HAL_GPIO_Init+0x126>
 80018f0:	2501      	movs	r5, #1
 80018f2:	e7d8      	b.n	80018a6 <HAL_GPIO_Init+0x126>
 80018f4:	2502      	movs	r5, #2
 80018f6:	e7d6      	b.n	80018a6 <HAL_GPIO_Init+0x126>
 80018f8:	2503      	movs	r5, #3
 80018fa:	e7d4      	b.n	80018a6 <HAL_GPIO_Init+0x126>
 80018fc:	40010400 	.word	0x40010400
 8001900:	48000400 	.word	0x48000400
 8001904:	40021000 	.word	0x40021000

08001908 <HAL_GPIO_WritePin>:
 8001908:	b10a      	cbz	r2, 800190e <HAL_GPIO_WritePin+0x6>
 800190a:	6181      	str	r1, [r0, #24]
 800190c:	4770      	bx	lr
 800190e:	6281      	str	r1, [r0, #40]	; 0x28
 8001910:	4770      	bx	lr
	...

08001914 <HAL_PWREx_GetVoltageRange>:
 8001914:	4b02      	ldr	r3, [pc, #8]	; (8001920 <HAL_PWREx_GetVoltageRange+0xc>)
 8001916:	6818      	ldr	r0, [r3, #0]
 8001918:	f400 60c0 	and.w	r0, r0, #1536	; 0x600
 800191c:	4770      	bx	lr
 800191e:	bf00      	nop
 8001920:	40007000 	.word	0x40007000

08001924 <HAL_PWREx_ControlVoltageScaling>:
 8001924:	4a17      	ldr	r2, [pc, #92]	; (8001984 <HAL_PWREx_ControlVoltageScaling+0x60>)
 8001926:	6813      	ldr	r3, [r2, #0]
 8001928:	f5b0 7f00 	cmp.w	r0, #512	; 0x200
 800192c:	f403 63c0 	and.w	r3, r3, #1536	; 0x600
 8001930:	d11d      	bne.n	800196e <HAL_PWREx_ControlVoltageScaling+0x4a>
 8001932:	f5b3 7f00 	cmp.w	r3, #512	; 0x200
 8001936:	d101      	bne.n	800193c <HAL_PWREx_ControlVoltageScaling+0x18>
 8001938:	2000      	movs	r0, #0
 800193a:	4770      	bx	lr
 800193c:	6813      	ldr	r3, [r2, #0]
 800193e:	f423 63c0 	bic.w	r3, r3, #1536	; 0x600
 8001942:	f443 7300 	orr.w	r3, r3, #512	; 0x200
 8001946:	6013      	str	r3, [r2, #0]
 8001948:	4b0f      	ldr	r3, [pc, #60]	; (8001988 <HAL_PWREx_ControlVoltageScaling+0x64>)
 800194a:	681b      	ldr	r3, [r3, #0]
 800194c:	2132      	movs	r1, #50	; 0x32
 800194e:	434b      	muls	r3, r1
 8001950:	490e      	ldr	r1, [pc, #56]	; (800198c <HAL_PWREx_ControlVoltageScaling+0x68>)
 8001952:	fbb3 f3f1 	udiv	r3, r3, r1
 8001956:	3301      	adds	r3, #1
 8001958:	6951      	ldr	r1, [r2, #20]
 800195a:	0549      	lsls	r1, r1, #21
 800195c:	d500      	bpl.n	8001960 <HAL_PWREx_ControlVoltageScaling+0x3c>
 800195e:	b923      	cbnz	r3, 800196a <HAL_PWREx_ControlVoltageScaling+0x46>
 8001960:	6953      	ldr	r3, [r2, #20]
 8001962:	055b      	lsls	r3, r3, #21
 8001964:	d5e8      	bpl.n	8001938 <HAL_PWREx_ControlVoltageScaling+0x14>
 8001966:	2003      	movs	r0, #3
 8001968:	4770      	bx	lr
 800196a:	3b01      	subs	r3, #1
 800196c:	e7f4      	b.n	8001958 <HAL_PWREx_ControlVoltageScaling+0x34>
 800196e:	f5b3 6f80 	cmp.w	r3, #1024	; 0x400
 8001972:	bf1f      	itttt	ne
 8001974:	6813      	ldrne	r3, [r2, #0]
 8001976:	f423 63c0 	bicne.w	r3, r3, #1536	; 0x600
 800197a:	f443 6380 	orrne.w	r3, r3, #1024	; 0x400
 800197e:	6013      	strne	r3, [r2, #0]
 8001980:	e7da      	b.n	8001938 <HAL_PWREx_ControlVoltageScaling+0x14>
 8001982:	bf00      	nop
 8001984:	40007000 	.word	0x40007000
 8001988:	20000030 	.word	0x20000030
 800198c:	000f4240 	.word	0x000f4240

08001990 <RCC_SetFlashLatencyFromMSIRange>:
 8001990:	b537      	push	{r0, r1, r2, r4, r5, lr}
 8001992:	4d1e      	ldr	r5, [pc, #120]	; (8001a0c <RCC_SetFlashLatencyFromMSIRange+0x7c>)
 8001994:	6dab      	ldr	r3, [r5, #88]	; 0x58
 8001996:	00da      	lsls	r2, r3, #3
 8001998:	4604      	mov	r4, r0
 800199a:	d518      	bpl.n	80019ce <RCC_SetFlashLatencyFromMSIRange+0x3e>
 800199c:	f7ff ffba 	bl	8001914 <HAL_PWREx_GetVoltageRange>
 80019a0:	f5b0 7f00 	cmp.w	r0, #512	; 0x200
 80019a4:	d123      	bne.n	80019ee <RCC_SetFlashLatencyFromMSIRange+0x5e>
 80019a6:	2c80      	cmp	r4, #128	; 0x80
 80019a8:	d929      	bls.n	80019fe <RCC_SetFlashLatencyFromMSIRange+0x6e>
 80019aa:	2ca0      	cmp	r4, #160	; 0xa0
 80019ac:	bf8c      	ite	hi
 80019ae:	2402      	movhi	r4, #2
 80019b0:	2401      	movls	r4, #1
 80019b2:	4917      	ldr	r1, [pc, #92]	; (8001a10 <RCC_SetFlashLatencyFromMSIRange+0x80>)
 80019b4:	680a      	ldr	r2, [r1, #0]
 80019b6:	f022 0207 	bic.w	r2, r2, #7
 80019ba:	4322      	orrs	r2, r4
 80019bc:	600a      	str	r2, [r1, #0]
 80019be:	6808      	ldr	r0, [r1, #0]
 80019c0:	f000 0007 	and.w	r0, r0, #7
 80019c4:	1b00      	subs	r0, r0, r4
 80019c6:	bf18      	it	ne
 80019c8:	2001      	movne	r0, #1
 80019ca:	b003      	add	sp, #12
 80019cc:	bd30      	pop	{r4, r5, pc}
 80019ce:	6dab      	ldr	r3, [r5, #88]	; 0x58
 80019d0:	f043 5380 	orr.w	r3, r3, #268435456	; 0x10000000
 80019d4:	65ab      	str	r3, [r5, #88]	; 0x58
 80019d6:	6dab      	ldr	r3, [r5, #88]	; 0x58
 80019d8:	f003 5380 	and.w	r3, r3, #268435456	; 0x10000000
 80019dc:	9301      	str	r3, [sp, #4]
 80019de:	9b01      	ldr	r3, [sp, #4]
 80019e0:	f7ff ff98 	bl	8001914 <HAL_PWREx_GetVoltageRange>
 80019e4:	6dab      	ldr	r3, [r5, #88]	; 0x58
 80019e6:	f023 5380 	bic.w	r3, r3, #268435456	; 0x10000000
 80019ea:	65ab      	str	r3, [r5, #88]	; 0x58
 80019ec:	e7d8      	b.n	80019a0 <RCC_SetFlashLatencyFromMSIRange+0x10>
 80019ee:	2c80      	cmp	r4, #128	; 0x80
 80019f0:	d807      	bhi.n	8001a02 <RCC_SetFlashLatencyFromMSIRange+0x72>
 80019f2:	d008      	beq.n	8001a06 <RCC_SetFlashLatencyFromMSIRange+0x76>
 80019f4:	f1a4 0370 	sub.w	r3, r4, #112	; 0x70
 80019f8:	425c      	negs	r4, r3
 80019fa:	415c      	adcs	r4, r3
 80019fc:	e7d9      	b.n	80019b2 <RCC_SetFlashLatencyFromMSIRange+0x22>
 80019fe:	2400      	movs	r4, #0
 8001a00:	e7d7      	b.n	80019b2 <RCC_SetFlashLatencyFromMSIRange+0x22>
 8001a02:	2403      	movs	r4, #3
 8001a04:	e7d5      	b.n	80019b2 <RCC_SetFlashLatencyFromMSIRange+0x22>
 8001a06:	2402      	movs	r4, #2
 8001a08:	e7d3      	b.n	80019b2 <RCC_SetFlashLatencyFromMSIRange+0x22>
 8001a0a:	bf00      	nop
 8001a0c:	40021000 	.word	0x40021000
 8001a10:	40022000 	.word	0x40022000

08001a14 <HAL_RCC_GetSysClockFreq>:
 8001a14:	4b20      	ldr	r3, [pc, #128]	; (8001a98 <HAL_RCC_GetSysClockFreq+0x84>)
 8001a16:	689a      	ldr	r2, [r3, #8]
 8001a18:	68d9      	ldr	r1, [r3, #12]
 8001a1a:	f012 020c 	ands.w	r2, r2, #12
 8001a1e:	d005      	beq.n	8001a2c <HAL_RCC_GetSysClockFreq+0x18>
 8001a20:	2a0c      	cmp	r2, #12
 8001a22:	d115      	bne.n	8001a50 <HAL_RCC_GetSysClockFreq+0x3c>
 8001a24:	f001 0103 	and.w	r1, r1, #3
 8001a28:	2901      	cmp	r1, #1
 8001a2a:	d11a      	bne.n	8001a62 <HAL_RCC_GetSysClockFreq+0x4e>
 8001a2c:	6819      	ldr	r1, [r3, #0]
 8001a2e:	481b      	ldr	r0, [pc, #108]	; (8001a9c <HAL_RCC_GetSysClockFreq+0x88>)
 8001a30:	0709      	lsls	r1, r1, #28
 8001a32:	bf55      	itete	pl
 8001a34:	f8d3 1094 	ldrpl.w	r1, [r3, #148]	; 0x94
 8001a38:	6819      	ldrmi	r1, [r3, #0]
 8001a3a:	f3c1 2103 	ubfxpl	r1, r1, #8, #4
 8001a3e:	f3c1 1103 	ubfxmi	r1, r1, #4, #4
 8001a42:	f850 0021 	ldr.w	r0, [r0, r1, lsl #2]
 8001a46:	b112      	cbz	r2, 8001a4e <HAL_RCC_GetSysClockFreq+0x3a>
 8001a48:	2a0c      	cmp	r2, #12
 8001a4a:	d00b      	beq.n	8001a64 <HAL_RCC_GetSysClockFreq+0x50>
 8001a4c:	2000      	movs	r0, #0
 8001a4e:	4770      	bx	lr
 8001a50:	f44f 7088 	mov.w	r0, #272	; 0x110
 8001a54:	4b12      	ldr	r3, [pc, #72]	; (8001aa0 <HAL_RCC_GetSysClockFreq+0x8c>)
 8001a56:	40d0      	lsrs	r0, r2
 8001a58:	f010 0001 	ands.w	r0, r0, #1
 8001a5c:	bf18      	it	ne
 8001a5e:	4618      	movne	r0, r3
 8001a60:	4770      	bx	lr
 8001a62:	2000      	movs	r0, #0
 8001a64:	68da      	ldr	r2, [r3, #12]
 8001a66:	490e      	ldr	r1, [pc, #56]	; (8001aa0 <HAL_RCC_GetSysClockFreq+0x8c>)
 8001a68:	f002 0203 	and.w	r2, r2, #3
 8001a6c:	3a02      	subs	r2, #2
 8001a6e:	2a01      	cmp	r2, #1
 8001a70:	bf98      	it	ls
 8001a72:	4608      	movls	r0, r1
 8001a74:	68d9      	ldr	r1, [r3, #12]
 8001a76:	68da      	ldr	r2, [r3, #12]
 8001a78:	f3c2 2206 	ubfx	r2, r2, #8, #7
 8001a7c:	4342      	muls	r2, r0
 8001a7e:	68d8      	ldr	r0, [r3, #12]
 8001a80:	f3c0 6041 	ubfx	r0, r0, #25, #2
 8001a84:	f3c1 1102 	ubfx	r1, r1, #4, #3
 8001a88:	3001      	adds	r0, #1
 8001a8a:	3101      	adds	r1, #1
 8001a8c:	0040      	lsls	r0, r0, #1
 8001a8e:	fbb2 f2f1 	udiv	r2, r2, r1
 8001a92:	fbb2 f0f0 	udiv	r0, r2, r0
 8001a96:	4770      	bx	lr
 8001a98:	40021000 	.word	0x40021000
 8001a9c:	0800234c 	.word	0x0800234c
 8001aa0:	00f42400 	.word	0x00f42400

08001aa4 <HAL_RCC_OscConfig>:
 8001aa4:	e92d 43f7 	stmdb	sp!, {r0, r1, r2, r4, r5, r6, r7, r8, r9, lr}
 8001aa8:	4605      	mov	r5, r0
 8001aaa:	b908      	cbnz	r0, 8001ab0 <HAL_RCC_OscConfig+0xc>
 8001aac:	2001      	movs	r0, #1
 8001aae:	e047      	b.n	8001b40 <HAL_RCC_OscConfig+0x9c>
 8001ab0:	4c94      	ldr	r4, [pc, #592]	; (8001d04 <HAL_RCC_OscConfig+0x260>)
 8001ab2:	6803      	ldr	r3, [r0, #0]
 8001ab4:	68a6      	ldr	r6, [r4, #8]
 8001ab6:	68e7      	ldr	r7, [r4, #12]
 8001ab8:	06db      	lsls	r3, r3, #27
 8001aba:	f006 060c 	and.w	r6, r6, #12
 8001abe:	f007 0703 	and.w	r7, r7, #3
 8001ac2:	d575      	bpl.n	8001bb0 <HAL_RCC_OscConfig+0x10c>
 8001ac4:	b11e      	cbz	r6, 8001ace <HAL_RCC_OscConfig+0x2a>
 8001ac6:	2e0c      	cmp	r6, #12
 8001ac8:	d154      	bne.n	8001b74 <HAL_RCC_OscConfig+0xd0>
 8001aca:	2f01      	cmp	r7, #1
 8001acc:	d152      	bne.n	8001b74 <HAL_RCC_OscConfig+0xd0>
 8001ace:	6823      	ldr	r3, [r4, #0]
 8001ad0:	0798      	lsls	r0, r3, #30
 8001ad2:	d502      	bpl.n	8001ada <HAL_RCC_OscConfig+0x36>
 8001ad4:	69ab      	ldr	r3, [r5, #24]
 8001ad6:	2b00      	cmp	r3, #0
 8001ad8:	d0e8      	beq.n	8001aac <HAL_RCC_OscConfig+0x8>
 8001ada:	6823      	ldr	r3, [r4, #0]
 8001adc:	6a28      	ldr	r0, [r5, #32]
 8001ade:	0719      	lsls	r1, r3, #28
 8001ae0:	bf56      	itet	pl
 8001ae2:	f8d4 3094 	ldrpl.w	r3, [r4, #148]	; 0x94
 8001ae6:	6823      	ldrmi	r3, [r4, #0]
 8001ae8:	091b      	lsrpl	r3, r3, #4
 8001aea:	f003 03f0 	and.w	r3, r3, #240	; 0xf0
 8001aee:	4298      	cmp	r0, r3
 8001af0:	d929      	bls.n	8001b46 <HAL_RCC_OscConfig+0xa2>
 8001af2:	f7ff ff4d 	bl	8001990 <RCC_SetFlashLatencyFromMSIRange>
 8001af6:	2800      	cmp	r0, #0
 8001af8:	d1d8      	bne.n	8001aac <HAL_RCC_OscConfig+0x8>
 8001afa:	6823      	ldr	r3, [r4, #0]
 8001afc:	f043 0308 	orr.w	r3, r3, #8
 8001b00:	6023      	str	r3, [r4, #0]
 8001b02:	6823      	ldr	r3, [r4, #0]
 8001b04:	6a2a      	ldr	r2, [r5, #32]
 8001b06:	f023 03f0 	bic.w	r3, r3, #240	; 0xf0
 8001b0a:	4313      	orrs	r3, r2
 8001b0c:	6023      	str	r3, [r4, #0]
 8001b0e:	6863      	ldr	r3, [r4, #4]
 8001b10:	69ea      	ldr	r2, [r5, #28]
 8001b12:	f423 437f 	bic.w	r3, r3, #65280	; 0xff00
 8001b16:	ea43 2302 	orr.w	r3, r3, r2, lsl #8
 8001b1a:	6063      	str	r3, [r4, #4]
 8001b1c:	f7ff ff7a 	bl	8001a14 <HAL_RCC_GetSysClockFreq>
 8001b20:	68a3      	ldr	r3, [r4, #8]
 8001b22:	4a79      	ldr	r2, [pc, #484]	; (8001d08 <HAL_RCC_OscConfig+0x264>)
 8001b24:	f3c3 1303 	ubfx	r3, r3, #4, #4
 8001b28:	5cd3      	ldrb	r3, [r2, r3]
 8001b2a:	f003 031f 	and.w	r3, r3, #31
 8001b2e:	40d8      	lsrs	r0, r3
 8001b30:	4b76      	ldr	r3, [pc, #472]	; (8001d0c <HAL_RCC_OscConfig+0x268>)
 8001b32:	6018      	str	r0, [r3, #0]
 8001b34:	4b76      	ldr	r3, [pc, #472]	; (8001d10 <HAL_RCC_OscConfig+0x26c>)
 8001b36:	6818      	ldr	r0, [r3, #0]
 8001b38:	f7ff f938 	bl	8000dac <HAL_InitTick>
 8001b3c:	2800      	cmp	r0, #0
 8001b3e:	d037      	beq.n	8001bb0 <HAL_RCC_OscConfig+0x10c>
 8001b40:	b003      	add	sp, #12
 8001b42:	e8bd 83f0 	ldmia.w	sp!, {r4, r5, r6, r7, r8, r9, pc}
 8001b46:	6823      	ldr	r3, [r4, #0]
 8001b48:	f043 0308 	orr.w	r3, r3, #8
 8001b4c:	6023      	str	r3, [r4, #0]
 8001b4e:	6823      	ldr	r3, [r4, #0]
 8001b50:	f023 03f0 	bic.w	r3, r3, #240	; 0xf0
 8001b54:	4303      	orrs	r3, r0
 8001b56:	6023      	str	r3, [r4, #0]
 8001b58:	6863      	ldr	r3, [r4, #4]
 8001b5a:	69ea      	ldr	r2, [r5, #28]
 8001b5c:	f423 437f 	bic.w	r3, r3, #65280	; 0xff00
 8001b60:	ea43 2302 	orr.w	r3, r3, r2, lsl #8
 8001b64:	6063      	str	r3, [r4, #4]
 8001b66:	2e00      	cmp	r6, #0
 8001b68:	d1d8      	bne.n	8001b1c <HAL_RCC_OscConfig+0x78>
 8001b6a:	f7ff ff11 	bl	8001990 <RCC_SetFlashLatencyFromMSIRange>
 8001b6e:	2800      	cmp	r0, #0
 8001b70:	d0d4      	beq.n	8001b1c <HAL_RCC_OscConfig+0x78>
 8001b72:	e79b      	b.n	8001aac <HAL_RCC_OscConfig+0x8>
 8001b74:	69ab      	ldr	r3, [r5, #24]
 8001b76:	2b00      	cmp	r3, #0
 8001b78:	d03a      	beq.n	8001bf0 <HAL_RCC_OscConfig+0x14c>
 8001b7a:	6823      	ldr	r3, [r4, #0]
 8001b7c:	f043 0301 	orr.w	r3, r3, #1
 8001b80:	6023      	str	r3, [r4, #0]
 8001b82:	f7ff f955 	bl	8000e30 <HAL_GetTick>
 8001b86:	4680      	mov	r8, r0
 8001b88:	6823      	ldr	r3, [r4, #0]
 8001b8a:	079a      	lsls	r2, r3, #30
 8001b8c:	d528      	bpl.n	8001be0 <HAL_RCC_OscConfig+0x13c>
 8001b8e:	6823      	ldr	r3, [r4, #0]
 8001b90:	f043 0308 	orr.w	r3, r3, #8
 8001b94:	6023      	str	r3, [r4, #0]
 8001b96:	6823      	ldr	r3, [r4, #0]
 8001b98:	6a2a      	ldr	r2, [r5, #32]
 8001b9a:	f023 03f0 	bic.w	r3, r3, #240	; 0xf0
 8001b9e:	4313      	orrs	r3, r2
 8001ba0:	6023      	str	r3, [r4, #0]
 8001ba2:	6863      	ldr	r3, [r4, #4]
 8001ba4:	69ea      	ldr	r2, [r5, #28]
 8001ba6:	f423 437f 	bic.w	r3, r3, #65280	; 0xff00
 8001baa:	ea43 2302 	orr.w	r3, r3, r2, lsl #8
 8001bae:	6063      	str	r3, [r4, #4]
 8001bb0:	682b      	ldr	r3, [r5, #0]
 8001bb2:	07d8      	lsls	r0, r3, #31
 8001bb4:	d42d      	bmi.n	8001c12 <HAL_RCC_OscConfig+0x16e>
 8001bb6:	682b      	ldr	r3, [r5, #0]
 8001bb8:	0799      	lsls	r1, r3, #30
 8001bba:	d46b      	bmi.n	8001c94 <HAL_RCC_OscConfig+0x1f0>
 8001bbc:	682b      	ldr	r3, [r5, #0]
 8001bbe:	0718      	lsls	r0, r3, #28
 8001bc0:	f100 80a8 	bmi.w	8001d14 <HAL_RCC_OscConfig+0x270>
 8001bc4:	682b      	ldr	r3, [r5, #0]
 8001bc6:	0759      	lsls	r1, r3, #29
 8001bc8:	f100 80ce 	bmi.w	8001d68 <HAL_RCC_OscConfig+0x2c4>
 8001bcc:	682b      	ldr	r3, [r5, #0]
 8001bce:	0699      	lsls	r1, r3, #26
 8001bd0:	f100 8137 	bmi.w	8001e42 <HAL_RCC_OscConfig+0x39e>
 8001bd4:	6aab      	ldr	r3, [r5, #40]	; 0x28
 8001bd6:	2b00      	cmp	r3, #0
 8001bd8:	f040 815d 	bne.w	8001e96 <HAL_RCC_OscConfig+0x3f2>
 8001bdc:	2000      	movs	r0, #0
 8001bde:	e7af      	b.n	8001b40 <HAL_RCC_OscConfig+0x9c>
 8001be0:	f7ff f926 	bl	8000e30 <HAL_GetTick>
 8001be4:	eba0 0008 	sub.w	r0, r0, r8
 8001be8:	2802      	cmp	r0, #2
 8001bea:	d9cd      	bls.n	8001b88 <HAL_RCC_OscConfig+0xe4>
 8001bec:	2003      	movs	r0, #3
 8001bee:	e7a7      	b.n	8001b40 <HAL_RCC_OscConfig+0x9c>
 8001bf0:	6823      	ldr	r3, [r4, #0]
 8001bf2:	f023 0301 	bic.w	r3, r3, #1
 8001bf6:	6023      	str	r3, [r4, #0]
 8001bf8:	f7ff f91a 	bl	8000e30 <HAL_GetTick>
 8001bfc:	4680      	mov	r8, r0
 8001bfe:	6823      	ldr	r3, [r4, #0]
 8001c00:	079b      	lsls	r3, r3, #30
 8001c02:	d5d5      	bpl.n	8001bb0 <HAL_RCC_OscConfig+0x10c>
 8001c04:	f7ff f914 	bl	8000e30 <HAL_GetTick>
 8001c08:	eba0 0008 	sub.w	r0, r0, r8
 8001c0c:	2802      	cmp	r0, #2
 8001c0e:	d9f6      	bls.n	8001bfe <HAL_RCC_OscConfig+0x15a>
 8001c10:	e7ec      	b.n	8001bec <HAL_RCC_OscConfig+0x148>
 8001c12:	2e08      	cmp	r6, #8
 8001c14:	d003      	beq.n	8001c1e <HAL_RCC_OscConfig+0x17a>
 8001c16:	2e0c      	cmp	r6, #12
 8001c18:	d108      	bne.n	8001c2c <HAL_RCC_OscConfig+0x188>
 8001c1a:	2f03      	cmp	r7, #3
 8001c1c:	d106      	bne.n	8001c2c <HAL_RCC_OscConfig+0x188>
 8001c1e:	6823      	ldr	r3, [r4, #0]
 8001c20:	039a      	lsls	r2, r3, #14
 8001c22:	d5c8      	bpl.n	8001bb6 <HAL_RCC_OscConfig+0x112>
 8001c24:	686b      	ldr	r3, [r5, #4]
 8001c26:	2b00      	cmp	r3, #0
 8001c28:	d1c5      	bne.n	8001bb6 <HAL_RCC_OscConfig+0x112>
 8001c2a:	e73f      	b.n	8001aac <HAL_RCC_OscConfig+0x8>
 8001c2c:	686b      	ldr	r3, [r5, #4]
 8001c2e:	f5b3 3f80 	cmp.w	r3, #65536	; 0x10000
 8001c32:	d110      	bne.n	8001c56 <HAL_RCC_OscConfig+0x1b2>
 8001c34:	6823      	ldr	r3, [r4, #0]
 8001c36:	f443 3380 	orr.w	r3, r3, #65536	; 0x10000
 8001c3a:	6023      	str	r3, [r4, #0]
 8001c3c:	f7ff f8f8 	bl	8000e30 <HAL_GetTick>
 8001c40:	4680      	mov	r8, r0
 8001c42:	6823      	ldr	r3, [r4, #0]
 8001c44:	039b      	lsls	r3, r3, #14
 8001c46:	d4b6      	bmi.n	8001bb6 <HAL_RCC_OscConfig+0x112>
 8001c48:	f7ff f8f2 	bl	8000e30 <HAL_GetTick>
 8001c4c:	eba0 0008 	sub.w	r0, r0, r8
 8001c50:	2864      	cmp	r0, #100	; 0x64
 8001c52:	d9f6      	bls.n	8001c42 <HAL_RCC_OscConfig+0x19e>
 8001c54:	e7ca      	b.n	8001bec <HAL_RCC_OscConfig+0x148>
 8001c56:	f5b3 2fa0 	cmp.w	r3, #327680	; 0x50000
 8001c5a:	d104      	bne.n	8001c66 <HAL_RCC_OscConfig+0x1c2>
 8001c5c:	6823      	ldr	r3, [r4, #0]
 8001c5e:	f443 2380 	orr.w	r3, r3, #262144	; 0x40000
 8001c62:	6023      	str	r3, [r4, #0]
 8001c64:	e7e6      	b.n	8001c34 <HAL_RCC_OscConfig+0x190>
 8001c66:	6822      	ldr	r2, [r4, #0]
 8001c68:	f422 3280 	bic.w	r2, r2, #65536	; 0x10000
 8001c6c:	6022      	str	r2, [r4, #0]
 8001c6e:	6822      	ldr	r2, [r4, #0]
 8001c70:	f422 2280 	bic.w	r2, r2, #262144	; 0x40000
 8001c74:	6022      	str	r2, [r4, #0]
 8001c76:	2b00      	cmp	r3, #0
 8001c78:	d1e0      	bne.n	8001c3c <HAL_RCC_OscConfig+0x198>
 8001c7a:	f7ff f8d9 	bl	8000e30 <HAL_GetTick>
 8001c7e:	4680      	mov	r8, r0
 8001c80:	6823      	ldr	r3, [r4, #0]
 8001c82:	0398      	lsls	r0, r3, #14
 8001c84:	d597      	bpl.n	8001bb6 <HAL_RCC_OscConfig+0x112>
 8001c86:	f7ff f8d3 	bl	8000e30 <HAL_GetTick>
 8001c8a:	eba0 0008 	sub.w	r0, r0, r8
 8001c8e:	2864      	cmp	r0, #100	; 0x64
 8001c90:	d9f6      	bls.n	8001c80 <HAL_RCC_OscConfig+0x1dc>
 8001c92:	e7ab      	b.n	8001bec <HAL_RCC_OscConfig+0x148>
 8001c94:	2e04      	cmp	r6, #4
 8001c96:	d003      	beq.n	8001ca0 <HAL_RCC_OscConfig+0x1fc>
 8001c98:	2e0c      	cmp	r6, #12
 8001c9a:	d110      	bne.n	8001cbe <HAL_RCC_OscConfig+0x21a>
 8001c9c:	2f02      	cmp	r7, #2
 8001c9e:	d10e      	bne.n	8001cbe <HAL_RCC_OscConfig+0x21a>
 8001ca0:	6823      	ldr	r3, [r4, #0]
 8001ca2:	0559      	lsls	r1, r3, #21
 8001ca4:	d503      	bpl.n	8001cae <HAL_RCC_OscConfig+0x20a>
 8001ca6:	68eb      	ldr	r3, [r5, #12]
 8001ca8:	2b00      	cmp	r3, #0
 8001caa:	f43f aeff 	beq.w	8001aac <HAL_RCC_OscConfig+0x8>
 8001cae:	6863      	ldr	r3, [r4, #4]
 8001cb0:	692a      	ldr	r2, [r5, #16]
 8001cb2:	f023 53f8 	bic.w	r3, r3, #520093696	; 0x1f000000
 8001cb6:	ea43 6302 	orr.w	r3, r3, r2, lsl #24
 8001cba:	6063      	str	r3, [r4, #4]
 8001cbc:	e77e      	b.n	8001bbc <HAL_RCC_OscConfig+0x118>
 8001cbe:	68eb      	ldr	r3, [r5, #12]
 8001cc0:	b17b      	cbz	r3, 8001ce2 <HAL_RCC_OscConfig+0x23e>
 8001cc2:	6823      	ldr	r3, [r4, #0]
 8001cc4:	f443 7380 	orr.w	r3, r3, #256	; 0x100
 8001cc8:	6023      	str	r3, [r4, #0]
 8001cca:	f7ff f8b1 	bl	8000e30 <HAL_GetTick>
 8001cce:	4607      	mov	r7, r0
 8001cd0:	6823      	ldr	r3, [r4, #0]
 8001cd2:	055a      	lsls	r2, r3, #21
 8001cd4:	d4eb      	bmi.n	8001cae <HAL_RCC_OscConfig+0x20a>
 8001cd6:	f7ff f8ab 	bl	8000e30 <HAL_GetTick>
 8001cda:	1bc0      	subs	r0, r0, r7
 8001cdc:	2802      	cmp	r0, #2
 8001cde:	d9f7      	bls.n	8001cd0 <HAL_RCC_OscConfig+0x22c>
 8001ce0:	e784      	b.n	8001bec <HAL_RCC_OscConfig+0x148>
 8001ce2:	6823      	ldr	r3, [r4, #0]
 8001ce4:	f423 7380 	bic.w	r3, r3, #256	; 0x100
 8001ce8:	6023      	str	r3, [r4, #0]
 8001cea:	f7ff f8a1 	bl	8000e30 <HAL_GetTick>
 8001cee:	4607      	mov	r7, r0
 8001cf0:	6823      	ldr	r3, [r4, #0]
 8001cf2:	055b      	lsls	r3, r3, #21
 8001cf4:	f57f af62 	bpl.w	8001bbc <HAL_RCC_OscConfig+0x118>
 8001cf8:	f7ff f89a 	bl	8000e30 <HAL_GetTick>
 8001cfc:	1bc0      	subs	r0, r0, r7
 8001cfe:	2802      	cmp	r0, #2
 8001d00:	d9f6      	bls.n	8001cf0 <HAL_RCC_OscConfig+0x24c>
 8001d02:	e773      	b.n	8001bec <HAL_RCC_OscConfig+0x148>
 8001d04:	40021000 	.word	0x40021000
 8001d08:	0800233c 	.word	0x0800233c
 8001d0c:	20000030 	.word	0x20000030
 8001d10:	20000038 	.word	0x20000038
 8001d14:	696b      	ldr	r3, [r5, #20]
 8001d16:	b19b      	cbz	r3, 8001d40 <HAL_RCC_OscConfig+0x29c>
 8001d18:	f8d4 3094 	ldr.w	r3, [r4, #148]	; 0x94
 8001d1c:	f043 0301 	orr.w	r3, r3, #1
 8001d20:	f8c4 3094 	str.w	r3, [r4, #148]	; 0x94
 8001d24:	f7ff f884 	bl	8000e30 <HAL_GetTick>
 8001d28:	4607      	mov	r7, r0
 8001d2a:	f8d4 3094 	ldr.w	r3, [r4, #148]	; 0x94
 8001d2e:	079a      	lsls	r2, r3, #30
 8001d30:	f53f af48 	bmi.w	8001bc4 <HAL_RCC_OscConfig+0x120>
 8001d34:	f7ff f87c 	bl	8000e30 <HAL_GetTick>
 8001d38:	1bc0      	subs	r0, r0, r7
 8001d3a:	2802      	cmp	r0, #2
 8001d3c:	d9f5      	bls.n	8001d2a <HAL_RCC_OscConfig+0x286>
 8001d3e:	e755      	b.n	8001bec <HAL_RCC_OscConfig+0x148>
 8001d40:	f8d4 3094 	ldr.w	r3, [r4, #148]	; 0x94
 8001d44:	f023 0301 	bic.w	r3, r3, #1
 8001d48:	f8c4 3094 	str.w	r3, [r4, #148]	; 0x94
 8001d4c:	f7ff f870 	bl	8000e30 <HAL_GetTick>
 8001d50:	4607      	mov	r7, r0
 8001d52:	f8d4 3094 	ldr.w	r3, [r4, #148]	; 0x94
 8001d56:	079b      	lsls	r3, r3, #30
 8001d58:	f57f af34 	bpl.w	8001bc4 <HAL_RCC_OscConfig+0x120>
 8001d5c:	f7ff f868 	bl	8000e30 <HAL_GetTick>
 8001d60:	1bc0      	subs	r0, r0, r7
 8001d62:	2802      	cmp	r0, #2
 8001d64:	d9f5      	bls.n	8001d52 <HAL_RCC_OscConfig+0x2ae>
 8001d66:	e741      	b.n	8001bec <HAL_RCC_OscConfig+0x148>
 8001d68:	6da3      	ldr	r3, [r4, #88]	; 0x58
 8001d6a:	00d8      	lsls	r0, r3, #3
 8001d6c:	d429      	bmi.n	8001dc2 <HAL_RCC_OscConfig+0x31e>
 8001d6e:	6da3      	ldr	r3, [r4, #88]	; 0x58
 8001d70:	f043 5380 	orr.w	r3, r3, #268435456	; 0x10000000
 8001d74:	65a3      	str	r3, [r4, #88]	; 0x58
 8001d76:	6da3      	ldr	r3, [r4, #88]	; 0x58
 8001d78:	f003 5380 	and.w	r3, r3, #268435456	; 0x10000000
 8001d7c:	9301      	str	r3, [sp, #4]
 8001d7e:	9b01      	ldr	r3, [sp, #4]
 8001d80:	f04f 0801 	mov.w	r8, #1
 8001d84:	4f96      	ldr	r7, [pc, #600]	; (8001fe0 <HAL_RCC_OscConfig+0x53c>)
 8001d86:	683b      	ldr	r3, [r7, #0]
 8001d88:	05d9      	lsls	r1, r3, #23
 8001d8a:	d51d      	bpl.n	8001dc8 <HAL_RCC_OscConfig+0x324>
 8001d8c:	68ab      	ldr	r3, [r5, #8]
 8001d8e:	2b01      	cmp	r3, #1
 8001d90:	d12b      	bne.n	8001dea <HAL_RCC_OscConfig+0x346>
 8001d92:	f8d4 3090 	ldr.w	r3, [r4, #144]	; 0x90
 8001d96:	f043 0301 	orr.w	r3, r3, #1
 8001d9a:	f8c4 3090 	str.w	r3, [r4, #144]	; 0x90
 8001d9e:	f7ff f847 	bl	8000e30 <HAL_GetTick>
 8001da2:	f241 3988 	movw	r9, #5000	; 0x1388
 8001da6:	4607      	mov	r7, r0
 8001da8:	f8d4 3090 	ldr.w	r3, [r4, #144]	; 0x90
 8001dac:	079b      	lsls	r3, r3, #30
 8001dae:	d542      	bpl.n	8001e36 <HAL_RCC_OscConfig+0x392>
 8001db0:	f1b8 0f00 	cmp.w	r8, #0
 8001db4:	f43f af0a 	beq.w	8001bcc <HAL_RCC_OscConfig+0x128>
 8001db8:	6da3      	ldr	r3, [r4, #88]	; 0x58
 8001dba:	f023 5380 	bic.w	r3, r3, #268435456	; 0x10000000
 8001dbe:	65a3      	str	r3, [r4, #88]	; 0x58
 8001dc0:	e704      	b.n	8001bcc <HAL_RCC_OscConfig+0x128>
 8001dc2:	f04f 0800 	mov.w	r8, #0
 8001dc6:	e7dd      	b.n	8001d84 <HAL_RCC_OscConfig+0x2e0>
 8001dc8:	683b      	ldr	r3, [r7, #0]
 8001dca:	f443 7380 	orr.w	r3, r3, #256	; 0x100
 8001dce:	603b      	str	r3, [r7, #0]
 8001dd0:	f7ff f82e 	bl	8000e30 <HAL_GetTick>
 8001dd4:	4681      	mov	r9, r0
 8001dd6:	683b      	ldr	r3, [r7, #0]
 8001dd8:	05da      	lsls	r2, r3, #23
 8001dda:	d4d7      	bmi.n	8001d8c <HAL_RCC_OscConfig+0x2e8>
 8001ddc:	f7ff f828 	bl	8000e30 <HAL_GetTick>
 8001de0:	eba0 0009 	sub.w	r0, r0, r9
 8001de4:	2802      	cmp	r0, #2
 8001de6:	d9f6      	bls.n	8001dd6 <HAL_RCC_OscConfig+0x332>
 8001de8:	e700      	b.n	8001bec <HAL_RCC_OscConfig+0x148>
 8001dea:	2b05      	cmp	r3, #5
 8001dec:	d106      	bne.n	8001dfc <HAL_RCC_OscConfig+0x358>
 8001dee:	f8d4 3090 	ldr.w	r3, [r4, #144]	; 0x90
 8001df2:	f043 0304 	orr.w	r3, r3, #4
 8001df6:	f8c4 3090 	str.w	r3, [r4, #144]	; 0x90
 8001dfa:	e7ca      	b.n	8001d92 <HAL_RCC_OscConfig+0x2ee>
 8001dfc:	f8d4 2090 	ldr.w	r2, [r4, #144]	; 0x90
 8001e00:	f022 0201 	bic.w	r2, r2, #1
 8001e04:	f8c4 2090 	str.w	r2, [r4, #144]	; 0x90
 8001e08:	f8d4 2090 	ldr.w	r2, [r4, #144]	; 0x90
 8001e0c:	f022 0204 	bic.w	r2, r2, #4
 8001e10:	f8c4 2090 	str.w	r2, [r4, #144]	; 0x90
 8001e14:	2b00      	cmp	r3, #0
 8001e16:	d1c2      	bne.n	8001d9e <HAL_RCC_OscConfig+0x2fa>
 8001e18:	f7ff f80a 	bl	8000e30 <HAL_GetTick>
 8001e1c:	f241 3988 	movw	r9, #5000	; 0x1388
 8001e20:	4607      	mov	r7, r0
 8001e22:	f8d4 3090 	ldr.w	r3, [r4, #144]	; 0x90
 8001e26:	0798      	lsls	r0, r3, #30
 8001e28:	d5c2      	bpl.n	8001db0 <HAL_RCC_OscConfig+0x30c>
 8001e2a:	f7ff f801 	bl	8000e30 <HAL_GetTick>
 8001e2e:	1bc0      	subs	r0, r0, r7
 8001e30:	4548      	cmp	r0, r9
 8001e32:	d9f6      	bls.n	8001e22 <HAL_RCC_OscConfig+0x37e>
 8001e34:	e6da      	b.n	8001bec <HAL_RCC_OscConfig+0x148>
 8001e36:	f7fe fffb 	bl	8000e30 <HAL_GetTick>
 8001e3a:	1bc0      	subs	r0, r0, r7
 8001e3c:	4548      	cmp	r0, r9
 8001e3e:	d9b3      	bls.n	8001da8 <HAL_RCC_OscConfig+0x304>
 8001e40:	e6d4      	b.n	8001bec <HAL_RCC_OscConfig+0x148>
 8001e42:	6a6b      	ldr	r3, [r5, #36]	; 0x24
 8001e44:	b19b      	cbz	r3, 8001e6e <HAL_RCC_OscConfig+0x3ca>
 8001e46:	f8d4 3098 	ldr.w	r3, [r4, #152]	; 0x98
 8001e4a:	f043 0301 	orr.w	r3, r3, #1
 8001e4e:	f8c4 3098 	str.w	r3, [r4, #152]	; 0x98
 8001e52:	f7fe ffed 	bl	8000e30 <HAL_GetTick>
 8001e56:	4607      	mov	r7, r0
 8001e58:	f8d4 3098 	ldr.w	r3, [r4, #152]	; 0x98
 8001e5c:	079a      	lsls	r2, r3, #30
 8001e5e:	f53f aeb9 	bmi.w	8001bd4 <HAL_RCC_OscConfig+0x130>
 8001e62:	f7fe ffe5 	bl	8000e30 <HAL_GetTick>
 8001e66:	1bc0      	subs	r0, r0, r7
 8001e68:	2802      	cmp	r0, #2
 8001e6a:	d9f5      	bls.n	8001e58 <HAL_RCC_OscConfig+0x3b4>
 8001e6c:	e6be      	b.n	8001bec <HAL_RCC_OscConfig+0x148>
 8001e6e:	f8d4 3098 	ldr.w	r3, [r4, #152]	; 0x98
 8001e72:	f023 0301 	bic.w	r3, r3, #1
 8001e76:	f8c4 3098 	str.w	r3, [r4, #152]	; 0x98
 8001e7a:	f7fe ffd9 	bl	8000e30 <HAL_GetTick>
 8001e7e:	4607      	mov	r7, r0
 8001e80:	f8d4 3098 	ldr.w	r3, [r4, #152]	; 0x98
 8001e84:	079b      	lsls	r3, r3, #30
 8001e86:	f57f aea5 	bpl.w	8001bd4 <HAL_RCC_OscConfig+0x130>
 8001e8a:	f7fe ffd1 	bl	8000e30 <HAL_GetTick>
 8001e8e:	1bc0      	subs	r0, r0, r7
 8001e90:	2802      	cmp	r0, #2
 8001e92:	d9f5      	bls.n	8001e80 <HAL_RCC_OscConfig+0x3dc>
 8001e94:	e6aa      	b.n	8001bec <HAL_RCC_OscConfig+0x148>
 8001e96:	2b02      	cmp	r3, #2
 8001e98:	f040 8088 	bne.w	8001fac <HAL_RCC_OscConfig+0x508>
 8001e9c:	68e3      	ldr	r3, [r4, #12]
 8001e9e:	6aea      	ldr	r2, [r5, #44]	; 0x2c
 8001ea0:	f003 0103 	and.w	r1, r3, #3
 8001ea4:	4291      	cmp	r1, r2
 8001ea6:	d122      	bne.n	8001eee <HAL_RCC_OscConfig+0x44a>
 8001ea8:	6b29      	ldr	r1, [r5, #48]	; 0x30
 8001eaa:	f003 0270 	and.w	r2, r3, #112	; 0x70
 8001eae:	3901      	subs	r1, #1
 8001eb0:	ebb2 1f01 	cmp.w	r2, r1, lsl #4
 8001eb4:	d11b      	bne.n	8001eee <HAL_RCC_OscConfig+0x44a>
 8001eb6:	6b69      	ldr	r1, [r5, #52]	; 0x34
 8001eb8:	f403 42fe 	and.w	r2, r3, #32512	; 0x7f00
 8001ebc:	ebb2 2f01 	cmp.w	r2, r1, lsl #8
 8001ec0:	d115      	bne.n	8001eee <HAL_RCC_OscConfig+0x44a>
 8001ec2:	6ba9      	ldr	r1, [r5, #56]	; 0x38
 8001ec4:	f003 4278 	and.w	r2, r3, #4160749568	; 0xf8000000
 8001ec8:	ebb2 6fc1 	cmp.w	r2, r1, lsl #27
 8001ecc:	d10f      	bne.n	8001eee <HAL_RCC_OscConfig+0x44a>
 8001ece:	6bea      	ldr	r2, [r5, #60]	; 0x3c
 8001ed0:	0852      	lsrs	r2, r2, #1
 8001ed2:	f403 01c0 	and.w	r1, r3, #6291456	; 0x600000
 8001ed6:	3a01      	subs	r2, #1
 8001ed8:	ebb1 5f42 	cmp.w	r1, r2, lsl #21
 8001edc:	d107      	bne.n	8001eee <HAL_RCC_OscConfig+0x44a>
 8001ede:	6c2a      	ldr	r2, [r5, #64]	; 0x40
 8001ee0:	0852      	lsrs	r2, r2, #1
 8001ee2:	f003 63c0 	and.w	r3, r3, #100663296	; 0x6000000
 8001ee6:	3a01      	subs	r2, #1
 8001ee8:	ebb3 6f42 	cmp.w	r3, r2, lsl #25
 8001eec:	d045      	beq.n	8001f7a <HAL_RCC_OscConfig+0x4d6>
 8001eee:	2e0c      	cmp	r6, #12
 8001ef0:	f43f addc 	beq.w	8001aac <HAL_RCC_OscConfig+0x8>
 8001ef4:	6823      	ldr	r3, [r4, #0]
 8001ef6:	015e      	lsls	r6, r3, #5
 8001ef8:	f53f add8 	bmi.w	8001aac <HAL_RCC_OscConfig+0x8>
 8001efc:	6823      	ldr	r3, [r4, #0]
 8001efe:	f023 7380 	bic.w	r3, r3, #16777216	; 0x1000000
 8001f02:	6023      	str	r3, [r4, #0]
 8001f04:	f7fe ff94 	bl	8000e30 <HAL_GetTick>
 8001f08:	4606      	mov	r6, r0
 8001f0a:	6823      	ldr	r3, [r4, #0]
 8001f0c:	0198      	lsls	r0, r3, #6
 8001f0e:	d42e      	bmi.n	8001f6e <HAL_RCC_OscConfig+0x4ca>
 8001f10:	68e2      	ldr	r2, [r4, #12]
 8001f12:	4b34      	ldr	r3, [pc, #208]	; (8001fe4 <HAL_RCC_OscConfig+0x540>)
 8001f14:	4013      	ands	r3, r2
 8001f16:	6aea      	ldr	r2, [r5, #44]	; 0x2c
 8001f18:	4313      	orrs	r3, r2
 8001f1a:	6b6a      	ldr	r2, [r5, #52]	; 0x34
 8001f1c:	ea43 2302 	orr.w	r3, r3, r2, lsl #8
 8001f20:	6baa      	ldr	r2, [r5, #56]	; 0x38
 8001f22:	ea43 63c2 	orr.w	r3, r3, r2, lsl #27
 8001f26:	6b2a      	ldr	r2, [r5, #48]	; 0x30
 8001f28:	3a01      	subs	r2, #1
 8001f2a:	ea43 1302 	orr.w	r3, r3, r2, lsl #4
 8001f2e:	6bea      	ldr	r2, [r5, #60]	; 0x3c
 8001f30:	0852      	lsrs	r2, r2, #1
 8001f32:	3a01      	subs	r2, #1
 8001f34:	ea43 5342 	orr.w	r3, r3, r2, lsl #21
 8001f38:	6c2a      	ldr	r2, [r5, #64]	; 0x40
 8001f3a:	0852      	lsrs	r2, r2, #1
 8001f3c:	3a01      	subs	r2, #1
 8001f3e:	ea43 6342 	orr.w	r3, r3, r2, lsl #25
 8001f42:	60e3      	str	r3, [r4, #12]
 8001f44:	6823      	ldr	r3, [r4, #0]
 8001f46:	f043 7380 	orr.w	r3, r3, #16777216	; 0x1000000
 8001f4a:	6023      	str	r3, [r4, #0]
 8001f4c:	68e3      	ldr	r3, [r4, #12]
 8001f4e:	f043 7380 	orr.w	r3, r3, #16777216	; 0x1000000
 8001f52:	60e3      	str	r3, [r4, #12]
 8001f54:	f7fe ff6c 	bl	8000e30 <HAL_GetTick>
 8001f58:	4605      	mov	r5, r0
 8001f5a:	6823      	ldr	r3, [r4, #0]
 8001f5c:	0199      	lsls	r1, r3, #6
 8001f5e:	f53f ae3d 	bmi.w	8001bdc <HAL_RCC_OscConfig+0x138>
 8001f62:	f7fe ff65 	bl	8000e30 <HAL_GetTick>
 8001f66:	1b40      	subs	r0, r0, r5
 8001f68:	2802      	cmp	r0, #2
 8001f6a:	d9f6      	bls.n	8001f5a <HAL_RCC_OscConfig+0x4b6>
 8001f6c:	e63e      	b.n	8001bec <HAL_RCC_OscConfig+0x148>
 8001f6e:	f7fe ff5f 	bl	8000e30 <HAL_GetTick>
 8001f72:	1b80      	subs	r0, r0, r6
 8001f74:	2802      	cmp	r0, #2
 8001f76:	d9c8      	bls.n	8001f0a <HAL_RCC_OscConfig+0x466>
 8001f78:	e638      	b.n	8001bec <HAL_RCC_OscConfig+0x148>
 8001f7a:	6823      	ldr	r3, [r4, #0]
 8001f7c:	019a      	lsls	r2, r3, #6
 8001f7e:	f53f ae2d 	bmi.w	8001bdc <HAL_RCC_OscConfig+0x138>
 8001f82:	6823      	ldr	r3, [r4, #0]
 8001f84:	f043 7380 	orr.w	r3, r3, #16777216	; 0x1000000
 8001f88:	6023      	str	r3, [r4, #0]
 8001f8a:	68e3      	ldr	r3, [r4, #12]
 8001f8c:	f043 7380 	orr.w	r3, r3, #16777216	; 0x1000000
 8001f90:	60e3      	str	r3, [r4, #12]
 8001f92:	f7fe ff4d 	bl	8000e30 <HAL_GetTick>
 8001f96:	4605      	mov	r5, r0
 8001f98:	6823      	ldr	r3, [r4, #0]
 8001f9a:	019b      	lsls	r3, r3, #6
 8001f9c:	f53f ae1e 	bmi.w	8001bdc <HAL_RCC_OscConfig+0x138>
 8001fa0:	f7fe ff46 	bl	8000e30 <HAL_GetTick>
 8001fa4:	1b40      	subs	r0, r0, r5
 8001fa6:	2802      	cmp	r0, #2
 8001fa8:	d9f6      	bls.n	8001f98 <HAL_RCC_OscConfig+0x4f4>
 8001faa:	e61f      	b.n	8001bec <HAL_RCC_OscConfig+0x148>
 8001fac:	2e0c      	cmp	r6, #12
 8001fae:	f43f ad7d 	beq.w	8001aac <HAL_RCC_OscConfig+0x8>
 8001fb2:	6823      	ldr	r3, [r4, #0]
 8001fb4:	f023 7380 	bic.w	r3, r3, #16777216	; 0x1000000
 8001fb8:	6023      	str	r3, [r4, #0]
 8001fba:	f7fe ff39 	bl	8000e30 <HAL_GetTick>
 8001fbe:	4605      	mov	r5, r0
 8001fc0:	6823      	ldr	r3, [r4, #0]
 8001fc2:	f013 7300 	ands.w	r3, r3, #33554432	; 0x2000000
 8001fc6:	d104      	bne.n	8001fd2 <HAL_RCC_OscConfig+0x52e>
 8001fc8:	68e1      	ldr	r1, [r4, #12]
 8001fca:	4a07      	ldr	r2, [pc, #28]	; (8001fe8 <HAL_RCC_OscConfig+0x544>)
 8001fcc:	400a      	ands	r2, r1
 8001fce:	60e2      	str	r2, [r4, #12]
 8001fd0:	e604      	b.n	8001bdc <HAL_RCC_OscConfig+0x138>
 8001fd2:	f7fe ff2d 	bl	8000e30 <HAL_GetTick>
 8001fd6:	1b40      	subs	r0, r0, r5
 8001fd8:	2802      	cmp	r0, #2
 8001fda:	d9f1      	bls.n	8001fc0 <HAL_RCC_OscConfig+0x51c>
 8001fdc:	e606      	b.n	8001bec <HAL_RCC_OscConfig+0x148>
 8001fde:	bf00      	nop
 8001fe0:	40007000 	.word	0x40007000
 8001fe4:	019d808c 	.word	0x019d808c
 8001fe8:	feeefffc 	.word	0xfeeefffc

08001fec <HAL_RCC_ClockConfig>:
 8001fec:	e92d 41f0 	stmdb	sp!, {r4, r5, r6, r7, r8, lr}
 8001ff0:	460d      	mov	r5, r1
 8001ff2:	4604      	mov	r4, r0
 8001ff4:	b910      	cbnz	r0, 8001ffc <HAL_RCC_ClockConfig+0x10>
 8001ff6:	2001      	movs	r0, #1
 8001ff8:	e8bd 81f0 	ldmia.w	sp!, {r4, r5, r6, r7, r8, pc}
 8001ffc:	4a4b      	ldr	r2, [pc, #300]	; (800212c <HAL_RCC_ClockConfig+0x140>)
 8001ffe:	6813      	ldr	r3, [r2, #0]
 8002000:	f003 0307 	and.w	r3, r3, #7
 8002004:	428b      	cmp	r3, r1
 8002006:	d32c      	bcc.n	8002062 <HAL_RCC_ClockConfig+0x76>
 8002008:	6821      	ldr	r1, [r4, #0]
 800200a:	0788      	lsls	r0, r1, #30
 800200c:	d434      	bmi.n	8002078 <HAL_RCC_ClockConfig+0x8c>
 800200e:	07c9      	lsls	r1, r1, #31
 8002010:	d43f      	bmi.n	8002092 <HAL_RCC_ClockConfig+0xa6>
 8002012:	6821      	ldr	r1, [r4, #0]
 8002014:	078a      	lsls	r2, r1, #30
 8002016:	d468      	bmi.n	80020ea <HAL_RCC_ClockConfig+0xfe>
 8002018:	4a44      	ldr	r2, [pc, #272]	; (800212c <HAL_RCC_ClockConfig+0x140>)
 800201a:	6813      	ldr	r3, [r2, #0]
 800201c:	f003 0307 	and.w	r3, r3, #7
 8002020:	42ab      	cmp	r3, r5
 8002022:	d86f      	bhi.n	8002104 <HAL_RCC_ClockConfig+0x118>
 8002024:	f011 0f04 	tst.w	r1, #4
 8002028:	4d41      	ldr	r5, [pc, #260]	; (8002130 <HAL_RCC_ClockConfig+0x144>)
 800202a:	d177      	bne.n	800211c <HAL_RCC_ClockConfig+0x130>
 800202c:	070b      	lsls	r3, r1, #28
 800202e:	d506      	bpl.n	800203e <HAL_RCC_ClockConfig+0x52>
 8002030:	68ab      	ldr	r3, [r5, #8]
 8002032:	6922      	ldr	r2, [r4, #16]
 8002034:	f423 5360 	bic.w	r3, r3, #14336	; 0x3800
 8002038:	ea43 03c2 	orr.w	r3, r3, r2, lsl #3
 800203c:	60ab      	str	r3, [r5, #8]
 800203e:	f7ff fce9 	bl	8001a14 <HAL_RCC_GetSysClockFreq>
 8002042:	68ab      	ldr	r3, [r5, #8]
 8002044:	4a3b      	ldr	r2, [pc, #236]	; (8002134 <HAL_RCC_ClockConfig+0x148>)
 8002046:	f3c3 1303 	ubfx	r3, r3, #4, #4
 800204a:	e8bd 41f0 	ldmia.w	sp!, {r4, r5, r6, r7, r8, lr}
 800204e:	5cd3      	ldrb	r3, [r2, r3]
 8002050:	f003 031f 	and.w	r3, r3, #31
 8002054:	40d8      	lsrs	r0, r3
 8002056:	4b38      	ldr	r3, [pc, #224]	; (8002138 <HAL_RCC_ClockConfig+0x14c>)
 8002058:	6018      	str	r0, [r3, #0]
 800205a:	4b38      	ldr	r3, [pc, #224]	; (800213c <HAL_RCC_ClockConfig+0x150>)
 800205c:	6818      	ldr	r0, [r3, #0]
 800205e:	f7fe bea5 	b.w	8000dac <HAL_InitTick>
 8002062:	6813      	ldr	r3, [r2, #0]
 8002064:	f023 0307 	bic.w	r3, r3, #7
 8002068:	430b      	orrs	r3, r1
 800206a:	6013      	str	r3, [r2, #0]
 800206c:	6813      	ldr	r3, [r2, #0]
 800206e:	f003 0307 	and.w	r3, r3, #7
 8002072:	428b      	cmp	r3, r1
 8002074:	d1bf      	bne.n	8001ff6 <HAL_RCC_ClockConfig+0xa>
 8002076:	e7c7      	b.n	8002008 <HAL_RCC_ClockConfig+0x1c>
 8002078:	4a2d      	ldr	r2, [pc, #180]	; (8002130 <HAL_RCC_ClockConfig+0x144>)
 800207a:	68a0      	ldr	r0, [r4, #8]
 800207c:	6893      	ldr	r3, [r2, #8]
 800207e:	f003 03f0 	and.w	r3, r3, #240	; 0xf0
 8002082:	4298      	cmp	r0, r3
 8002084:	bf81      	itttt	hi
 8002086:	6893      	ldrhi	r3, [r2, #8]
 8002088:	f023 03f0 	bichi.w	r3, r3, #240	; 0xf0
 800208c:	4303      	orrhi	r3, r0
 800208e:	6093      	strhi	r3, [r2, #8]
 8002090:	e7bd      	b.n	800200e <HAL_RCC_ClockConfig+0x22>
 8002092:	6862      	ldr	r2, [r4, #4]
 8002094:	4e26      	ldr	r6, [pc, #152]	; (8002130 <HAL_RCC_ClockConfig+0x144>)
 8002096:	2a03      	cmp	r2, #3
 8002098:	6833      	ldr	r3, [r6, #0]
 800209a:	d11a      	bne.n	80020d2 <HAL_RCC_ClockConfig+0xe6>
 800209c:	f013 7f00 	tst.w	r3, #33554432	; 0x2000000
 80020a0:	d0a9      	beq.n	8001ff6 <HAL_RCC_ClockConfig+0xa>
 80020a2:	68b3      	ldr	r3, [r6, #8]
 80020a4:	f023 0303 	bic.w	r3, r3, #3
 80020a8:	4313      	orrs	r3, r2
 80020aa:	60b3      	str	r3, [r6, #8]
 80020ac:	f7fe fec0 	bl	8000e30 <HAL_GetTick>
 80020b0:	f241 3888 	movw	r8, #5000	; 0x1388
 80020b4:	4607      	mov	r7, r0
 80020b6:	68b3      	ldr	r3, [r6, #8]
 80020b8:	6862      	ldr	r2, [r4, #4]
 80020ba:	f003 030c 	and.w	r3, r3, #12
 80020be:	ebb3 0f82 	cmp.w	r3, r2, lsl #2
 80020c2:	d0a6      	beq.n	8002012 <HAL_RCC_ClockConfig+0x26>
 80020c4:	f7fe feb4 	bl	8000e30 <HAL_GetTick>
 80020c8:	1bc0      	subs	r0, r0, r7
 80020ca:	4540      	cmp	r0, r8
 80020cc:	d9f3      	bls.n	80020b6 <HAL_RCC_ClockConfig+0xca>
 80020ce:	2003      	movs	r0, #3
 80020d0:	e792      	b.n	8001ff8 <HAL_RCC_ClockConfig+0xc>
 80020d2:	2a02      	cmp	r2, #2
 80020d4:	d102      	bne.n	80020dc <HAL_RCC_ClockConfig+0xf0>
 80020d6:	f413 3f00 	tst.w	r3, #131072	; 0x20000
 80020da:	e7e1      	b.n	80020a0 <HAL_RCC_ClockConfig+0xb4>
 80020dc:	b912      	cbnz	r2, 80020e4 <HAL_RCC_ClockConfig+0xf8>
 80020de:	f013 0f02 	tst.w	r3, #2
 80020e2:	e7dd      	b.n	80020a0 <HAL_RCC_ClockConfig+0xb4>
 80020e4:	f413 6f80 	tst.w	r3, #1024	; 0x400
 80020e8:	e7da      	b.n	80020a0 <HAL_RCC_ClockConfig+0xb4>
 80020ea:	4a11      	ldr	r2, [pc, #68]	; (8002130 <HAL_RCC_ClockConfig+0x144>)
 80020ec:	68a0      	ldr	r0, [r4, #8]
 80020ee:	6893      	ldr	r3, [r2, #8]
 80020f0:	f003 03f0 	and.w	r3, r3, #240	; 0xf0
 80020f4:	4298      	cmp	r0, r3
 80020f6:	bf3f      	itttt	cc
 80020f8:	6893      	ldrcc	r3, [r2, #8]
 80020fa:	f023 03f0 	biccc.w	r3, r3, #240	; 0xf0
 80020fe:	4303      	orrcc	r3, r0
 8002100:	6093      	strcc	r3, [r2, #8]
 8002102:	e789      	b.n	8002018 <HAL_RCC_ClockConfig+0x2c>
 8002104:	6813      	ldr	r3, [r2, #0]
 8002106:	f023 0307 	bic.w	r3, r3, #7
 800210a:	432b      	orrs	r3, r5
 800210c:	6013      	str	r3, [r2, #0]
 800210e:	6813      	ldr	r3, [r2, #0]
 8002110:	f003 0307 	and.w	r3, r3, #7
 8002114:	42ab      	cmp	r3, r5
 8002116:	f47f af6e 	bne.w	8001ff6 <HAL_RCC_ClockConfig+0xa>
 800211a:	e783      	b.n	8002024 <HAL_RCC_ClockConfig+0x38>
 800211c:	68ab      	ldr	r3, [r5, #8]
 800211e:	68e2      	ldr	r2, [r4, #12]
 8002120:	f423 63e0 	bic.w	r3, r3, #1792	; 0x700
 8002124:	4313      	orrs	r3, r2
 8002126:	60ab      	str	r3, [r5, #8]
 8002128:	e780      	b.n	800202c <HAL_RCC_ClockConfig+0x40>
 800212a:	bf00      	nop
 800212c:	40022000 	.word	0x40022000
 8002130:	40021000 	.word	0x40021000
 8002134:	0800233c 	.word	0x0800233c
 8002138:	20000030 	.word	0x20000030
 800213c:	20000038 	.word	0x20000038

08002140 <HAL_TIM_Base_Start>:
 8002140:	f890 303d 	ldrb.w	r3, [r0, #61]	; 0x3d
 8002144:	2b01      	cmp	r3, #1
 8002146:	d11b      	bne.n	8002180 <HAL_TIM_Base_Start+0x40>
 8002148:	2302      	movs	r3, #2
 800214a:	4a0e      	ldr	r2, [pc, #56]	; (8002184 <HAL_TIM_Base_Start+0x44>)
 800214c:	f880 303d 	strb.w	r3, [r0, #61]	; 0x3d
 8002150:	6803      	ldr	r3, [r0, #0]
 8002152:	4293      	cmp	r3, r2
 8002154:	d006      	beq.n	8002164 <HAL_TIM_Base_Start+0x24>
 8002156:	f1b3 4f80 	cmp.w	r3, #1073741824	; 0x40000000
 800215a:	d003      	beq.n	8002164 <HAL_TIM_Base_Start+0x24>
 800215c:	f502 52a0 	add.w	r2, r2, #5120	; 0x1400
 8002160:	4293      	cmp	r3, r2
 8002162:	d107      	bne.n	8002174 <HAL_TIM_Base_Start+0x34>
 8002164:	6899      	ldr	r1, [r3, #8]
 8002166:	4a08      	ldr	r2, [pc, #32]	; (8002188 <HAL_TIM_Base_Start+0x48>)
 8002168:	400a      	ands	r2, r1
 800216a:	2a06      	cmp	r2, #6
 800216c:	d006      	beq.n	800217c <HAL_TIM_Base_Start+0x3c>
 800216e:	f5b2 3f80 	cmp.w	r2, #65536	; 0x10000
 8002172:	d003      	beq.n	800217c <HAL_TIM_Base_Start+0x3c>
 8002174:	681a      	ldr	r2, [r3, #0]
 8002176:	f042 0201 	orr.w	r2, r2, #1
 800217a:	601a      	str	r2, [r3, #0]
 800217c:	2000      	movs	r0, #0
 800217e:	4770      	bx	lr
 8002180:	2001      	movs	r0, #1
 8002182:	4770      	bx	lr
 8002184:	40012c00 	.word	0x40012c00
 8002188:	00010007 	.word	0x00010007

0800218c <TIM_Base_SetConfig>:
 800218c:	4a1a      	ldr	r2, [pc, #104]	; (80021f8 <TIM_Base_SetConfig+0x6c>)
 800218e:	6803      	ldr	r3, [r0, #0]
 8002190:	4290      	cmp	r0, r2
 8002192:	b510      	push	{r4, lr}
 8002194:	d002      	beq.n	800219c <TIM_Base_SetConfig+0x10>
 8002196:	f1b0 4f80 	cmp.w	r0, #1073741824	; 0x40000000
 800219a:	d109      	bne.n	80021b0 <TIM_Base_SetConfig+0x24>
 800219c:	684c      	ldr	r4, [r1, #4]
 800219e:	f023 0370 	bic.w	r3, r3, #112	; 0x70
 80021a2:	4290      	cmp	r0, r2
 80021a4:	ea43 0304 	orr.w	r3, r3, r4
 80021a8:	d009      	beq.n	80021be <TIM_Base_SetConfig+0x32>
 80021aa:	f1b0 4f80 	cmp.w	r0, #1073741824	; 0x40000000
 80021ae:	d006      	beq.n	80021be <TIM_Base_SetConfig+0x32>
 80021b0:	4a12      	ldr	r2, [pc, #72]	; (80021fc <TIM_Base_SetConfig+0x70>)
 80021b2:	4290      	cmp	r0, r2
 80021b4:	d003      	beq.n	80021be <TIM_Base_SetConfig+0x32>
 80021b6:	f502 6280 	add.w	r2, r2, #1024	; 0x400
 80021ba:	4290      	cmp	r0, r2
 80021bc:	d103      	bne.n	80021c6 <TIM_Base_SetConfig+0x3a>
 80021be:	68ca      	ldr	r2, [r1, #12]
 80021c0:	f423 7340 	bic.w	r3, r3, #768	; 0x300
 80021c4:	4313      	orrs	r3, r2
 80021c6:	694a      	ldr	r2, [r1, #20]
 80021c8:	f023 0380 	bic.w	r3, r3, #128	; 0x80
 80021cc:	4313      	orrs	r3, r2
 80021ce:	6003      	str	r3, [r0, #0]
 80021d0:	688b      	ldr	r3, [r1, #8]
 80021d2:	62c3      	str	r3, [r0, #44]	; 0x2c
 80021d4:	680b      	ldr	r3, [r1, #0]
 80021d6:	6283      	str	r3, [r0, #40]	; 0x28
 80021d8:	4b07      	ldr	r3, [pc, #28]	; (80021f8 <TIM_Base_SetConfig+0x6c>)
 80021da:	4298      	cmp	r0, r3
 80021dc:	d007      	beq.n	80021ee <TIM_Base_SetConfig+0x62>
 80021de:	f503 53a0 	add.w	r3, r3, #5120	; 0x1400
 80021e2:	4298      	cmp	r0, r3
 80021e4:	d003      	beq.n	80021ee <TIM_Base_SetConfig+0x62>
 80021e6:	f503 6380 	add.w	r3, r3, #1024	; 0x400
 80021ea:	4298      	cmp	r0, r3
 80021ec:	d101      	bne.n	80021f2 <TIM_Base_SetConfig+0x66>
 80021ee:	690b      	ldr	r3, [r1, #16]
 80021f0:	6303      	str	r3, [r0, #48]	; 0x30
 80021f2:	2301      	movs	r3, #1
 80021f4:	6143      	str	r3, [r0, #20]
 80021f6:	bd10      	pop	{r4, pc}
 80021f8:	40012c00 	.word	0x40012c00
 80021fc:	40014000 	.word	0x40014000

08002200 <HAL_TIM_Base_Init>:
 8002200:	b510      	push	{r4, lr}
 8002202:	4604      	mov	r4, r0
 8002204:	b350      	cbz	r0, 800225c <HAL_TIM_Base_Init+0x5c>
 8002206:	f890 303d 	ldrb.w	r3, [r0, #61]	; 0x3d
 800220a:	f003 02ff 	and.w	r2, r3, #255	; 0xff
 800220e:	b91b      	cbnz	r3, 8002218 <HAL_TIM_Base_Init+0x18>
 8002210:	f880 203c 	strb.w	r2, [r0, #60]	; 0x3c
 8002214:	f7fe fd78 	bl	8000d08 <HAL_TIM_Base_MspInit>
 8002218:	2302      	movs	r3, #2
 800221a:	6820      	ldr	r0, [r4, #0]
 800221c:	f884 303d 	strb.w	r3, [r4, #61]	; 0x3d
 8002220:	1d21      	adds	r1, r4, #4
 8002222:	f7ff ffb3 	bl	800218c <TIM_Base_SetConfig>
 8002226:	2301      	movs	r3, #1
 8002228:	f884 3048 	strb.w	r3, [r4, #72]	; 0x48
 800222c:	2000      	movs	r0, #0
 800222e:	f884 303e 	strb.w	r3, [r4, #62]	; 0x3e
 8002232:	f884 303f 	strb.w	r3, [r4, #63]	; 0x3f
 8002236:	f884 3040 	strb.w	r3, [r4, #64]	; 0x40
 800223a:	f884 3041 	strb.w	r3, [r4, #65]	; 0x41
 800223e:	f884 3042 	strb.w	r3, [r4, #66]	; 0x42
 8002242:	f884 3043 	strb.w	r3, [r4, #67]	; 0x43
 8002246:	f884 3044 	strb.w	r3, [r4, #68]	; 0x44
 800224a:	f884 3045 	strb.w	r3, [r4, #69]	; 0x45
 800224e:	f884 3046 	strb.w	r3, [r4, #70]	; 0x46
 8002252:	f884 3047 	strb.w	r3, [r4, #71]	; 0x47
 8002256:	f884 303d 	strb.w	r3, [r4, #61]	; 0x3d
 800225a:	bd10      	pop	{r4, pc}
 800225c:	2001      	movs	r0, #1
 800225e:	e7fc      	b.n	800225a <HAL_TIM_Base_Init+0x5a>

08002260 <HAL_TIMEx_MasterConfigSynchronization>:
 8002260:	b570      	push	{r4, r5, r6, lr}
 8002262:	f890 303c 	ldrb.w	r3, [r0, #60]	; 0x3c
 8002266:	2b01      	cmp	r3, #1
 8002268:	f04f 0302 	mov.w	r3, #2
 800226c:	d023      	beq.n	80022b6 <HAL_TIMEx_MasterConfigSynchronization+0x56>
 800226e:	6802      	ldr	r2, [r0, #0]
 8002270:	4d12      	ldr	r5, [pc, #72]	; (80022bc <HAL_TIMEx_MasterConfigSynchronization+0x5c>)
 8002272:	f880 303d 	strb.w	r3, [r0, #61]	; 0x3d
 8002276:	6853      	ldr	r3, [r2, #4]
 8002278:	6894      	ldr	r4, [r2, #8]
 800227a:	42aa      	cmp	r2, r5
 800227c:	bf02      	ittt	eq
 800227e:	684e      	ldreq	r6, [r1, #4]
 8002280:	f423 0370 	biceq.w	r3, r3, #15728640	; 0xf00000
 8002284:	4333      	orreq	r3, r6
 8002286:	680e      	ldr	r6, [r1, #0]
 8002288:	f023 0370 	bic.w	r3, r3, #112	; 0x70
 800228c:	4333      	orrs	r3, r6
 800228e:	42aa      	cmp	r2, r5
 8002290:	6053      	str	r3, [r2, #4]
 8002292:	d005      	beq.n	80022a0 <HAL_TIMEx_MasterConfigSynchronization+0x40>
 8002294:	f1b2 4f80 	cmp.w	r2, #1073741824	; 0x40000000
 8002298:	d002      	beq.n	80022a0 <HAL_TIMEx_MasterConfigSynchronization+0x40>
 800229a:	4b09      	ldr	r3, [pc, #36]	; (80022c0 <HAL_TIMEx_MasterConfigSynchronization+0x60>)
 800229c:	429a      	cmp	r2, r3
 800229e:	d104      	bne.n	80022aa <HAL_TIMEx_MasterConfigSynchronization+0x4a>
 80022a0:	6889      	ldr	r1, [r1, #8]
 80022a2:	f024 0380 	bic.w	r3, r4, #128	; 0x80
 80022a6:	430b      	orrs	r3, r1
 80022a8:	6093      	str	r3, [r2, #8]
 80022aa:	2301      	movs	r3, #1
 80022ac:	f880 303d 	strb.w	r3, [r0, #61]	; 0x3d
 80022b0:	2300      	movs	r3, #0
 80022b2:	f880 303c 	strb.w	r3, [r0, #60]	; 0x3c
 80022b6:	4618      	mov	r0, r3
 80022b8:	bd70      	pop	{r4, r5, r6, pc}
 80022ba:	bf00      	nop
 80022bc:	40012c00 	.word	0x40012c00
 80022c0:	40014000 	.word	0x40014000

080022c4 <memset>:
 80022c4:	4402      	add	r2, r0
 80022c6:	4603      	mov	r3, r0
 80022c8:	4293      	cmp	r3, r2
 80022ca:	d100      	bne.n	80022ce <memset+0xa>
 80022cc:	4770      	bx	lr
 80022ce:	f803 1b01 	strb.w	r1, [r3], #1
 80022d2:	e7f9      	b.n	80022c8 <memset+0x4>

080022d4 <__libc_init_array>:
 80022d4:	b570      	push	{r4, r5, r6, lr}
 80022d6:	4d0d      	ldr	r5, [pc, #52]	; (800230c <__libc_init_array+0x38>)
 80022d8:	4c0d      	ldr	r4, [pc, #52]	; (8002310 <__libc_init_array+0x3c>)
 80022da:	1b64      	subs	r4, r4, r5
 80022dc:	10a4      	asrs	r4, r4, #2
 80022de:	2600      	movs	r6, #0
 80022e0:	42a6      	cmp	r6, r4
 80022e2:	d109      	bne.n	80022f8 <__libc_init_array+0x24>
 80022e4:	4d0b      	ldr	r5, [pc, #44]	; (8002314 <__libc_init_array+0x40>)
 80022e6:	4c0c      	ldr	r4, [pc, #48]	; (8002318 <__libc_init_array+0x44>)
 80022e8:	f000 f818 	bl	800231c <_init>
 80022ec:	1b64      	subs	r4, r4, r5
 80022ee:	10a4      	asrs	r4, r4, #2
 80022f0:	2600      	movs	r6, #0
 80022f2:	42a6      	cmp	r6, r4
 80022f4:	d105      	bne.n	8002302 <__libc_init_array+0x2e>
 80022f6:	bd70      	pop	{r4, r5, r6, pc}
 80022f8:	f855 3b04 	ldr.w	r3, [r5], #4
 80022fc:	4798      	blx	r3
 80022fe:	3601      	adds	r6, #1
 8002300:	e7ee      	b.n	80022e0 <__libc_init_array+0xc>
 8002302:	f855 3b04 	ldr.w	r3, [r5], #4
 8002306:	4798      	blx	r3
 8002308:	3601      	adds	r6, #1
 800230a:	e7f2      	b.n	80022f2 <__libc_init_array+0x1e>
 800230c:	0800237c 	.word	0x0800237c
 8002310:	0800237c 	.word	0x0800237c
 8002314:	0800237c 	.word	0x0800237c
 8002318:	08002380 	.word	0x08002380

0800231c <_init>:
 800231c:	b5f8      	push	{r3, r4, r5, r6, r7, lr}
 800231e:	bf00      	nop
 8002320:	bcf8      	pop	{r3, r4, r5, r6, r7}
 8002322:	bc08      	pop	{r3}
 8002324:	469e      	mov	lr, r3
 8002326:	4770      	bx	lr

08002328 <_fini>:
 8002328:	b5f8      	push	{r3, r4, r5, r6, r7, lr}
 800232a:	bf00      	nop
 800232c:	bcf8      	pop	{r3, r4, r5, r6, r7}
 800232e:	bc08      	pop	{r3}
 8002330:	469e      	mov	lr, r3
 8002332:	4770      	bx	lr
